(lp0
(dp1
S'nb_frames'
p2
F687.75
sS'name'
p3
S'01_01'
p4
sS'use_split'
p5
S'train'
p6
sa(dp7
g2
F1086.5
sg3
S'01_02'
p8
sg5
g6
sa(dp9
g2
F1127.5
sg3
S'01_03'
p10
sg5
g6
sa(dp11
g2
F1074.5
sg3
S'01_04'
p12
sg5
g6
sa(dp13
g2
F1094.0
sg3
S'01_05'
p14
sg5
g6
sa(dp15
g2
F1283.25
sg3
S'01_06'
p16
sg5
g6
sa(dp17
g2
F1209.75
sg3
S'01_07'
p18
sg5
g6
sa(dp19
g2
F652.5
sg3
S'01_08'
p20
sg5
g6
sa(dp21
g2
F1060.5
sg3
S'01_09'
p22
sg5
g6
sa(dp23
g2
F816.5
sg3
S'01_10'
p24
sg5
g6
sa(dp25
g2
F1163.5
sg3
S'01_11'
p26
sg5
g6
sa(dp27
g2
F1027.25
sg3
S'01_12'
p28
sg5
g6
sa(dp29
g2
F846.25
sg3
S'01_13'
p30
sg5
g6
sa(dp31
g2
F85.75
sg3
S'02_01'
p32
sg5
g6
sa(dp33
g2
F74.5
sg3
S'02_02'
p34
sg5
g6
sa(dp35
g2
F43.25
sg3
S'02_03'
p36
sg5
g6
sa(dp37
g2
F120.75
sg3
S'02_04'
p38
sg5
g6
sa(dp39
g2
F463.5
sg3
S'02_05'
p40
sg5
g6
sa(dp41
g2
F558.75
sg3
S'02_06'
p42
sg5
g6
sa(dp43
g2
F562.75
sg3
S'02_07'
p44
sg5
g6
sa(dp45
g2
F375.0
sg3
S'02_08'
p46
sg5
g6
sa(dp47
g2
F258.25
sg3
S'02_09'
p48
sg5
g6
sa(dp49
g2
F661.25
sg3
S'02_10'
p50
sg5
g6
sa(dp51
g2
F686.0
sg3
S'03_01'
p52
sg5
S'test'
p53
sa(dp54
g2
F91.25
sg3
S'03_02'
p55
sg5
g53
sa(dp56
g2
F1140.75
sg3
S'03_03'
p57
sg5
g53
sa(dp58
g2
F1180.5
sg3
S'03_04'
p59
sg5
g53
sa(dp60
g2
F149.5
sg3
S'05_01'
p61
sg5
g6
sa(dp62
g2
F280.75
sg3
S'05_02'
p63
sg5
g6
sa(dp64
g2
F108.5
sg3
S'05_03'
p65
sg5
g6
sa(dp66
g2
F299.75
sg3
S'05_04'
p67
sg5
g6
sa(dp68
g2
F228.75
sg3
S'05_05'
p69
sg5
g6
sa(dp70
g2
F221.25
sg3
S'05_06'
p71
sg5
g6
sa(dp72
g2
F297.75
sg3
S'05_07'
p73
sg5
g6
sa(dp74
g2
F180.25
sg3
S'05_08'
p75
sg5
g6
sa(dp76
g2
F204.25
sg3
S'05_10'
p77
sg5
g6
sa(dp78
g2
F147.75
sg3
S'05_11'
p79
sg5
g6
sa(dp80
g2
F338.5
sg3
S'05_12'
p81
sg5
g6
sa(dp82
g2
F273.75
sg3
S'05_13'
p83
sg5
g6
sa(dp84
g2
F160.5
sg3
S'05_14'
p85
sg5
g6
sa(dp86
g2
F135.0
sg3
S'05_15'
p87
sg5
g6
sa(dp88
g2
F131.25
sg3
S'05_16'
p89
sg5
g6
sa(dp90
g2
F260.75
sg3
S'05_17'
p91
sg5
g6
sa(dp92
g2
F457.25
sg3
S'05_18'
p93
sg5
g6
sa(dp94
g2
F215.0
sg3
S'05_19'
p95
sg5
g6
sa(dp96
g2
F273.75
sg3
S'05_20'
p97
sg5
g6
sa(dp98
g2
F123.5
sg3
S'06_01'
p99
sg5
g53
sa(dp100
g2
F131.75
sg3
S'06_03'
p101
sg5
g53
sa(dp102
g2
F99.0
sg3
S'06_04'
p103
sg5
g53
sa(dp104
g2
F96.25
sg3
S'06_05'
p105
sg5
g53
sa(dp106
g2
F100.5
sg3
S'06_06'
p107
sg5
g53
sa(dp108
g2
F144.0
sg3
S'06_07'
p109
sg5
g53
sa(dp110
g2
F85.5
sg3
S'06_08'
p111
sg5
g53
sa(dp112
g2
F75.25
sg3
S'06_09'
p113
sg5
g53
sa(dp114
g2
F278.25
sg3
S'06_10'
p115
sg5
g53
sa(dp116
g2
F286.5
sg3
S'06_11'
p117
sg5
g53
sa(dp118
g2
F305.5
sg3
S'06_12'
p119
sg5
g53
sa(dp120
g2
F119.75
sg3
S'06_14'
p121
sg5
g53
sa(dp122
g2
F136.25
sg3
S'06_15'
p123
sg5
g53
sa(dp124
g2
F69.25
sg3
S'08_01'
p125
sg5
g6
sa(dp126
g2
F77.25
sg3
S'08_02'
p127
sg5
g6
sa(dp128
g2
F88.25
sg3
S'08_03'
p129
sg5
g6
sa(dp130
g2
F121.0
sg3
S'08_04'
p131
sg5
g6
sa(dp132
g2
F74.5
sg3
S'08_05'
p133
sg5
g6
sa(dp134
g2
F74.0
sg3
S'08_06'
p135
sg5
g6
sa(dp136
g2
F70.75
sg3
S'08_08'
p137
sg5
g6
sa(dp138
g2
F73.25
sg3
S'08_09'
p139
sg5
g6
sa(dp140
g2
F68.75
sg3
S'08_10'
p141
sg5
g6
sa(dp142
g2
F93.75
sg3
S'08_11'
p143
sg5
g6
sa(dp144
g2
F37.0
sg3
S'09_01'
p145
sg5
g53
sa(dp146
g2
F32.5
sg3
S'09_02'
p147
sg5
g53
sa(dp148
g2
F32.0
sg3
S'09_03'
p149
sg5
g53
sa(dp150
g2
F34.25
sg3
S'09_04'
p151
sg5
g53
sa(dp152
g2
F35.75
sg3
S'09_05'
p153
sg5
g53
sa(dp154
g2
F35.25
sg3
S'09_06'
p155
sg5
g53
sa(dp156
g2
F34.5
sg3
S'09_07'
p157
sg5
g53
sa(dp158
g2
F32.0
sg3
S'09_08'
p159
sg5
g53
sa(dp160
g2
F38.0
sg3
S'09_09'
p161
sg5
g53
sa(dp162
g2
F33.0
sg3
S'09_10'
p163
sg5
g53
sa(dp164
g2
F41.25
sg3
S'09_11'
p165
sg5
g53
sa(dp166
g2
F479.5
sg3
S'09_12'
p167
sg5
g53
sa(dp168
g2
F221.25
sg3
S'104_02'
p169
sg5
g53
sa(dp170
g2
F404.75
sg3
S'104_03'
p171
sg5
g53
sa(dp172
g2
F49.5
sg3
S'104_04'
p173
sg5
g53
sa(dp174
g2
F84.25
sg3
S'104_06'
p175
sg5
g53
sa(dp176
g2
F576.0
sg3
S'104_07'
p177
sg5
g53
sa(dp178
g2
F78.5
sg3
S'104_08'
p179
sg5
g53
sa(dp180
g2
F87.25
sg3
S'104_09'
p181
sg5
g53
sa(dp182
g2
F83.5
sg3
S'104_10'
p183
sg5
g53
sa(dp184
g2
F134.75
sg3
S'104_11'
p185
sg5
g53
sa(dp186
g2
F105.25
sg3
S'104_12'
p187
sg5
g53
sa(dp188
g2
F137.5
sg3
S'104_13'
p189
sg5
g53
sa(dp190
g2
F177.25
sg3
S'104_14'
p191
sg5
g53
sa(dp192
g2
F52.0
sg3
S'104_15'
p193
sg5
g53
sa(dp194
g2
F81.75
sg3
S'104_16'
p195
sg5
g53
sa(dp196
g2
F116.25
sg3
S'104_17'
p197
sg5
g53
sa(dp198
g2
F230.25
sg3
S'104_19'
p199
sg5
g53
sa(dp200
g2
F175.25
sg3
S'104_20'
p201
sg5
g53
sa(dp202
g2
F197.25
sg3
S'104_21'
p203
sg5
g53
sa(dp204
g2
F459.5
sg3
S'104_22'
p205
sg5
g53
sa(dp206
g2
F458.5
sg3
S'104_23'
p207
sg5
g53
sa(dp208
g2
F474.0
sg3
S'104_24'
p209
sg5
g53
sa(dp210
g2
F612.75
sg3
S'104_25'
p211
sg5
g53
sa(dp212
g2
F275.0
sg3
S'104_26'
p213
sg5
g53
sa(dp214
g2
F608.5
sg3
S'104_27'
p215
sg5
g53
sa(dp216
g2
F120.0
sg3
S'104_29'
p217
sg5
g53
sa(dp218
g2
F341.25
sg3
S'104_30'
p219
sg5
g53
sa(dp220
g2
F321.75
sg3
S'104_31'
p221
sg5
g53
sa(dp222
g2
F391.25
sg3
S'104_32'
p223
sg5
g53
sa(dp224
g2
F371.5
sg3
S'104_33'
p225
sg5
g53
sa(dp226
g2
F278.75
sg3
S'104_34'
p227
sg5
g53
sa(dp228
g2
F268.5
sg3
S'104_35'
p229
sg5
g53
sa(dp230
g2
F578.75
sg3
S'104_36'
p231
sg5
g53
sa(dp232
g2
F37.5
sg3
S'104_37'
p233
sg5
g53
sa(dp234
g2
F667.25
sg3
S'104_38'
p235
sg5
g53
sa(dp236
g2
F803.5
sg3
S'104_39'
p237
sg5
g53
sa(dp238
g2
F759.0
sg3
S'104_40'
p239
sg5
g53
sa(dp240
g2
F389.5
sg3
S'104_41'
p241
sg5
g53
sa(dp242
g2
F653.25
sg3
S'104_42'
p243
sg5
g53
sa(dp244
g2
F844.25
sg3
S'104_43'
p245
sg5
g53
sa(dp246
g2
F271.75
sg3
S'104_44'
p247
sg5
g53
sa(dp248
g2
F551.75
sg3
S'104_45'
p249
sg5
g53
sa(dp250
g2
F695.75
sg3
S'104_46'
p251
sg5
g53
sa(dp252
g2
F423.5
sg3
S'104_47'
p253
sg5
g53
sa(dp254
g2
F681.5
sg3
S'104_49'
p255
sg5
g53
sa(dp256
g2
F801.25
sg3
S'104_50'
p257
sg5
g53
sa(dp258
g2
F345.5
sg3
S'104_51'
p259
sg5
g53
sa(dp260
g2
F677.0
sg3
S'104_52'
p261
sg5
g53
sa(dp262
g2
F74.75
sg3
S'104_53'
p263
sg5
g53
sa(dp264
g2
F62.25
sg3
S'104_54'
p265
sg5
g53
sa(dp266
g2
F92.0
sg3
S'104_56'
p267
sg5
g53
sa(dp268
g2
F96.0
sg3
S'104_57'
p269
sg5
g53
sa(dp270
g2
F684.25
sg3
S'105_01'
p271
sg5
g6
sa(dp272
g2
F437.0
sg3
S'105_02'
p273
sg5
g6
sa(dp274
g2
F466.25
sg3
S'105_03'
p275
sg5
g6
sa(dp276
g2
F540.5
sg3
S'105_04'
p277
sg5
g6
sa(dp278
g2
F675.0
sg3
S'105_05'
p279
sg5
g6
sa(dp280
g2
F34.0
sg3
S'105_06'
p281
sg5
g6
sa(dp282
g2
F645.5
sg3
S'105_07'
p283
sg5
g6
sa(dp284
g2
F993.0
sg3
S'105_08'
p285
sg5
g6
sa(dp286
g2
F1350.5
sg3
S'105_09'
p287
sg5
g6
sa(dp288
g2
F793.75
sg3
S'105_10'
p289
sg5
g6
sa(dp290
g2
F465.75
sg3
S'105_11'
p291
sg5
g6
sa(dp292
g2
F555.5
sg3
S'105_12'
p293
sg5
g6
sa(dp294
g2
F740.0
sg3
S'105_13'
p295
sg5
g6
sa(dp296
g2
F692.25
sg3
S'105_14'
p297
sg5
g6
sa(dp298
g2
F772.5
sg3
S'105_15'
p299
sg5
g6
sa(dp300
g2
F473.0
sg3
S'105_16'
p301
sg5
g6
sa(dp302
g2
F840.75
sg3
S'105_18'
p303
sg5
g6
sa(dp304
g2
F471.25
sg3
S'105_19'
p305
sg5
g6
sa(dp306
g2
F693.5
sg3
S'105_20'
p307
sg5
g6
sa(dp308
g2
F967.5
sg3
S'105_21'
p309
sg5
g6
sa(dp310
g2
F526.5
sg3
S'105_22'
p311
sg5
g6
sa(dp312
g2
F667.0
sg3
S'105_23'
p313
sg5
g6
sa(dp314
g2
F951.0
sg3
S'105_24'
p315
sg5
g6
sa(dp316
g2
F784.25
sg3
S'105_25'
p317
sg5
g6
sa(dp318
g2
F520.5
sg3
S'105_26'
p319
sg5
g6
sa(dp320
g2
F723.5
sg3
S'105_27'
p321
sg5
g6
sa(dp322
g2
F826.75
sg3
S'105_28'
p323
sg5
g6
sa(dp324
g2
F545.25
sg3
S'105_29'
p325
sg5
g6
sa(dp326
g2
F784.75
sg3
S'105_30'
p327
sg5
g6
sa(dp328
g2
F498.0
sg3
S'105_31'
p329
sg5
g6
sa(dp330
g2
F931.0
sg3
S'105_32'
p331
sg5
g6
sa(dp332
g2
F674.5
sg3
S'105_33'
p333
sg5
g6
sa(dp334
g2
F552.0
sg3
S'105_34'
p335
sg5
g6
sa(dp336
g2
F763.0
sg3
S'105_35'
p337
sg5
g6
sa(dp338
g2
F221.75
sg3
S'105_36'
p339
sg5
g6
sa(dp340
g2
F78.75
sg3
S'105_37'
p341
sg5
g6
sa(dp342
g2
F114.5
sg3
S'105_38'
p343
sg5
g6
sa(dp344
g2
F111.5
sg3
S'105_39'
p345
sg5
g6
sa(dp346
g2
F117.25
sg3
S'105_40'
p347
sg5
g6
sa(dp348
g2
F125.75
sg3
S'105_41'
p349
sg5
g6
sa(dp350
g2
F56.75
sg3
S'105_43'
p351
sg5
g6
sa(dp352
g2
F84.5
sg3
S'105_44'
p353
sg5
g6
sa(dp354
g2
F92.75
sg3
S'105_45'
p355
sg5
g6
sa(dp356
g2
F80.5
sg3
S'105_46'
p357
sg5
g6
sa(dp358
g2
F117.25
sg3
S'105_47'
p359
sg5
g6
sa(dp360
g2
F110.0
sg3
S'105_48'
p361
sg5
g6
sa(dp362
g2
F120.5
sg3
S'105_49'
p363
sg5
g6
sa(dp364
g2
F165.75
sg3
S'105_50'
p365
sg5
g6
sa(dp366
g2
F121.0
sg3
S'105_51'
p367
sg5
g6
sa(dp368
g2
F127.25
sg3
S'105_52'
p369
sg5
g6
sa(dp370
g2
F138.75
sg3
S'105_53'
p371
sg5
g6
sa(dp372
g2
F169.5
sg3
S'105_54'
p373
sg5
g6
sa(dp374
g2
F116.75
sg3
S'105_55'
p375
sg5
g6
sa(dp376
g2
F125.0
sg3
S'105_56'
p377
sg5
g6
sa(dp378
g2
F294.25
sg3
S'105_57'
p379
sg5
g6
sa(dp380
g2
F123.25
sg3
S'105_58'
p381
sg5
g6
sa(dp382
g2
F78.0
sg3
S'105_59'
p383
sg5
g6
sa(dp384
g2
F91.75
sg3
S'105_60'
p385
sg5
g6
sa(dp386
g2
F462.25
sg3
S'105_62'
p387
sg5
g6
sa(dp388
g2
F18.5
sg3
S'106_01'
p389
sg5
g6
sa(dp390
g2
F28.0
sg3
S'106_02'
p391
sg5
g6
sa(dp392
g2
F57.5
sg3
S'106_03'
p393
sg5
g6
sa(dp394
g2
F136.75
sg3
S'106_04'
p395
sg5
g6
sa(dp396
g2
F57.5
sg3
S'106_05'
p397
sg5
g6
sa(dp398
g2
F162.75
sg3
S'106_06'
p399
sg5
g6
sa(dp400
g2
F74.5
sg3
S'106_07'
p401
sg5
g6
sa(dp402
g2
F82.75
sg3
S'106_08'
p403
sg5
g6
sa(dp404
g2
F58.5
sg3
S'106_09'
p405
sg5
g6
sa(dp406
g2
F126.75
sg3
S'106_10'
p407
sg5
g6
sa(dp408
g2
F171.5
sg3
S'106_11'
p409
sg5
g6
sa(dp410
g2
F142.0
sg3
S'106_12'
p411
sg5
g6
sa(dp412
g2
F92.0
sg3
S'106_13'
p413
sg5
g6
sa(dp414
g2
F144.25
sg3
S'106_14'
p415
sg5
g6
sa(dp416
g2
F291.25
sg3
S'106_15'
p417
sg5
g6
sa(dp418
g2
F74.75
sg3
S'106_16'
p419
sg5
g6
sa(dp420
g2
F140.25
sg3
S'106_17'
p421
sg5
g6
sa(dp422
g2
F97.0
sg3
S'106_18'
p423
sg5
g6
sa(dp424
g2
F298.25
sg3
S'106_19'
p425
sg5
g6
sa(dp426
g2
F190.75
sg3
S'106_20'
p427
sg5
g6
sa(dp428
g2
F68.0
sg3
S'106_21'
p429
sg5
g6
sa(dp430
g2
F49.5
sg3
S'106_22'
p431
sg5
g6
sa(dp432
g2
F64.0
sg3
S'106_23'
p433
sg5
g6
sa(dp434
g2
F65.0
sg3
S'106_24'
p435
sg5
g6
sa(dp436
g2
F99.5
sg3
S'106_26'
p437
sg5
g6
sa(dp438
g2
F138.75
sg3
S'106_27'
p439
sg5
g6
sa(dp440
g2
F88.75
sg3
S'106_28'
p441
sg5
g6
sa(dp442
g2
F291.5
sg3
S'106_29'
p443
sg5
g6
sa(dp444
g2
F180.25
sg3
S'106_30'
p445
sg5
g6
sa(dp446
g2
F167.75
sg3
S'106_31'
p447
sg5
g6
sa(dp448
g2
F222.0
sg3
S'106_32'
p449
sg5
g6
sa(dp450
g2
F264.75
sg3
S'106_33'
p451
sg5
g6
sa(dp452
g2
F78.5
sg3
S'106_34'
p453
sg5
g6
sa(dp454
g2
F132.75
sg3
S'107_01'
p455
sg5
g53
sa(dp456
g2
F172.0
sg3
S'107_02'
p457
sg5
g53
sa(dp458
g2
F128.25
sg3
S'107_03'
p459
sg5
g53
sa(dp460
g2
F109.0
sg3
S'107_04'
p461
sg5
g53
sa(dp462
g2
F92.25
sg3
S'107_06'
p463
sg5
g53
sa(dp464
g2
F128.75
sg3
S'107_07'
p465
sg5
g53
sa(dp466
g2
F207.0
sg3
S'107_08'
p467
sg5
g53
sa(dp468
g2
F156.5
sg3
S'107_09'
p469
sg5
g53
sa(dp470
g2
F142.25
sg3
S'107_10'
p471
sg5
g53
sa(dp472
g2
F150.0
sg3
S'107_11'
p473
sg5
g53
sa(dp474
g2
F63.75
sg3
S'107_12'
p475
sg5
g53
sa(dp476
g2
F53.75
sg3
S'107_13'
p477
sg5
g53
sa(dp478
g2
F110.5
sg3
S'107_14'
p479
sg5
g53
sa(dp480
g2
F180.75
sg3
S'108_01'
p481
sg5
g53
sa(dp482
g2
F286.0
sg3
S'108_02'
p483
sg5
g53
sa(dp484
g2
F306.75
sg3
S'108_03'
p485
sg5
g53
sa(dp486
g2
F46.0
sg3
S'108_04'
p487
sg5
g53
sa(dp488
g2
F45.75
sg3
S'108_05'
p489
sg5
g53
sa(dp490
g2
F47.25
sg3
S'108_06'
p491
sg5
g53
sa(dp492
g2
F55.75
sg3
S'108_07'
p493
sg5
g53
sa(dp494
g2
F56.25
sg3
S'108_08'
p495
sg5
g53
sa(dp496
g2
F59.5
sg3
S'108_10'
p497
sg5
g53
sa(dp498
g2
F61.0
sg3
S'108_11'
p499
sg5
g53
sa(dp500
g2
F34.25
sg3
S'108_12'
p501
sg5
g53
sa(dp502
g2
F39.0
sg3
S'108_13'
p503
sg5
g53
sa(dp504
g2
F44.0
sg3
S'108_14'
p505
sg5
g53
sa(dp506
g2
F89.0
sg3
S'108_15'
p507
sg5
g53
sa(dp508
g2
F88.25
sg3
S'108_16'
p509
sg5
g53
sa(dp510
g2
F57.75
sg3
S'108_17'
p511
sg5
g53
sa(dp512
g2
F61.5
sg3
S'108_18'
p513
sg5
g53
sa(dp514
g2
F69.75
sg3
S'108_20'
p515
sg5
g53
sa(dp516
g2
F124.0
sg3
S'108_21'
p517
sg5
g53
sa(dp518
g2
F115.5
sg3
S'108_22'
p519
sg5
g53
sa(dp520
g2
F166.0
sg3
S'108_23'
p521
sg5
g53
sa(dp522
g2
F132.75
sg3
S'108_24'
p523
sg5
g53
sa(dp524
g2
F152.75
sg3
S'108_25'
p525
sg5
g53
sa(dp526
g2
F138.25
sg3
S'108_26'
p527
sg5
g53
sa(dp528
g2
F104.75
sg3
S'108_27'
p529
sg5
g53
sa(dp530
g2
F90.75
sg3
S'108_28'
p531
sg5
g53
sa(dp532
g2
F200.25
sg3
S'10_01'
p533
sg5
g53
sa(dp534
g2
F147.5
sg3
S'10_02'
p535
sg5
g53
sa(dp536
g2
F90.5
sg3
S'10_03'
p537
sg5
g53
sa(dp538
g2
F137.25
sg3
S'10_04'
p539
sg5
g53
sa(dp540
g2
F109.0
sg3
S'10_05'
p541
sg5
g53
sa(dp542
g2
F249.75
sg3
S'111_01'
p543
sg5
g6
sa(dp544
g2
F105.75
sg3
S'111_02'
p545
sg5
g6
sa(dp546
g2
F381.0
sg3
S'111_03'
p547
sg5
g6
sa(dp548
g2
F231.5
sg3
S'111_05'
p549
sg5
g6
sa(dp550
g2
F381.0
sg3
S'111_06'
p551
sg5
g6
sa(dp552
g2
F493.25
sg3
S'111_07'
p553
sg5
g6
sa(dp554
g2
F383.5
sg3
S'111_08'
p555
sg5
g6
sa(dp556
g2
F196.25
sg3
S'111_09'
p557
sg5
g6
sa(dp558
g2
F112.25
sg3
S'111_10'
p559
sg5
g6
sa(dp560
g2
F143.0
sg3
S'111_11'
p561
sg5
g6
sa(dp562
g2
F404.25
sg3
S'111_12'
p563
sg5
g6
sa(dp564
g2
F320.25
sg3
S'111_13'
p565
sg5
g6
sa(dp566
g2
F322.0
sg3
S'111_14'
p567
sg5
g6
sa(dp568
g2
F67.25
sg3
S'111_15'
p569
sg5
g6
sa(dp570
g2
F107.5
sg3
S'111_16'
p571
sg5
g6
sa(dp572
g2
F141.0
sg3
S'111_17'
p573
sg5
g6
sa(dp574
g2
F135.25
sg3
S'111_18'
p575
sg5
g6
sa(dp576
g2
F256.0
sg3
S'111_19'
p577
sg5
g6
sa(dp578
g2
F264.75
sg3
S'111_20'
p579
sg5
g6
sa(dp580
g2
F568.75
sg3
S'111_21'
p581
sg5
g6
sa(dp582
g2
F1480.5
sg3
S'111_22'
p583
sg5
g6
sa(dp584
g2
F282.25
sg3
S'111_23'
p585
sg5
g6
sa(dp586
g2
F215.5
sg3
S'111_24'
p587
sg5
g6
sa(dp588
g2
F72.75
sg3
S'111_25'
p589
sg5
g6
sa(dp590
g2
F680.25
sg3
S'111_26'
p591
sg5
g6
sa(dp592
g2
F476.75
sg3
S'111_28'
p593
sg5
g6
sa(dp594
g2
F136.25
sg3
S'111_29'
p595
sg5
g6
sa(dp596
g2
F115.5
sg3
S'111_30'
p597
sg5
g6
sa(dp598
g2
F561.75
sg3
S'111_31'
p599
sg5
g6
sa(dp600
g2
F187.0
sg3
S'111_32'
p601
sg5
g6
sa(dp602
g2
F517.25
sg3
S'111_33'
p603
sg5
g6
sa(dp604
g2
F459.25
sg3
S'111_34'
p605
sg5
g6
sa(dp606
g2
F366.25
sg3
S'111_36'
p607
sg5
g6
sa(dp608
g2
F81.0
sg3
S'111_37'
p609
sg5
g6
sa(dp610
g2
F660.0
sg3
S'111_38'
p611
sg5
g6
sa(dp612
g2
F1023.5
sg3
S'111_39'
p613
sg5
g6
sa(dp614
g2
F76.75
sg3
S'111_40'
p615
sg5
g6
sa(dp616
g2
F924.25
sg3
S'111_41'
p617
sg5
g6
sa(dp618
g2
F178.75
sg3
S'123_01'
p619
sg5
g6
sa(dp620
g2
F189.75
sg3
S'123_02'
p621
sg5
g6
sa(dp622
g2
F463.25
sg3
S'123_03'
p623
sg5
g6
sa(dp624
g2
F417.25
sg3
S'123_04'
p625
sg5
g6
sa(dp626
g2
F226.0
sg3
S'123_05'
p627
sg5
g6
sa(dp628
g2
F208.75
sg3
S'123_06'
p629
sg5
g6
sa(dp630
g2
F390.0
sg3
S'123_07'
p631
sg5
g6
sa(dp632
g2
F213.5
sg3
S'123_08'
p633
sg5
g6
sa(dp634
g2
F210.0
sg3
S'123_09'
p635
sg5
g6
sa(dp636
g2
F199.75
sg3
S'123_10'
p637
sg5
g6
sa(dp638
g2
F156.75
sg3
S'123_11'
p639
sg5
g6
sa(dp640
g2
F199.0
sg3
S'123_12'
p641
sg5
g6
sa(dp642
g2
F168.25
sg3
S'123_13'
p643
sg5
g6
sa(dp644
g2
F648.25
sg3
S'126_01'
p645
sg5
g6
sa(dp646
g2
F439.5
sg3
S'126_02'
p647
sg5
g6
sa(dp648
g2
F645.75
sg3
S'126_03'
p649
sg5
g6
sa(dp650
g2
F414.25
sg3
S'126_04'
p651
sg5
g6
sa(dp652
g2
F389.75
sg3
S'126_05'
p653
sg5
g6
sa(dp654
g2
F626.75
sg3
S'126_06'
p655
sg5
g6
sa(dp656
g2
F629.0
sg3
S'126_07'
p657
sg5
g6
sa(dp658
g2
F384.0
sg3
S'126_08'
p659
sg5
g6
sa(dp660
g2
F445.0
sg3
S'126_09'
p661
sg5
g6
sa(dp662
g2
F313.25
sg3
S'126_10'
p663
sg5
g6
sa(dp664
g2
F457.25
sg3
S'126_11'
p665
sg5
g6
sa(dp666
g2
F604.25
sg3
S'126_12'
p667
sg5
g6
sa(dp668
g2
F28.75
sg3
S'126_13'
p669
sg5
g6
sa(dp670
g2
F1689.25
sg3
S'126_14'
p671
sg5
g6
sa(dp672
g2
F81.25
sg3
S'128_01'
p673
sg5
g53
sa(dp674
g2
F41.75
sg3
S'128_02'
p675
sg5
g53
sa(dp676
g2
F41.0
sg3
S'128_03'
p677
sg5
g53
sa(dp678
g2
F34.0
sg3
S'128_04'
p679
sg5
g53
sa(dp680
g2
F52.25
sg3
S'128_05'
p681
sg5
g53
sa(dp682
g2
F49.25
sg3
S'128_06'
p683
sg5
g53
sa(dp684
g2
F86.5
sg3
S'128_07'
p685
sg5
g53
sa(dp686
g2
F82.5
sg3
S'128_08'
p687
sg5
g53
sa(dp688
g2
F43.0
sg3
S'128_09'
p689
sg5
g53
sa(dp690
g2
F106.75
sg3
S'128_10'
p691
sg5
g53
sa(dp692
g2
F94.5
sg3
S'128_11'
p693
sg5
g53
sa(dp694
g2
F248.5
sg3
S'131_01'
p695
sg5
g6
sa(dp696
g2
F311.75
sg3
S'131_02'
p697
sg5
g6
sa(dp698
g2
F275.5
sg3
S'131_03'
p699
sg5
g6
sa(dp700
g2
F271.5
sg3
S'131_04'
p701
sg5
g6
sa(dp702
g2
F316.0
sg3
S'131_05'
p703
sg5
g6
sa(dp704
g2
F296.0
sg3
S'131_06'
p705
sg5
g6
sa(dp706
g2
F172.75
sg3
S'131_07'
p707
sg5
g6
sa(dp708
g2
F196.0
sg3
S'131_08'
p709
sg5
g6
sa(dp710
g2
F573.25
sg3
S'131_09'
p711
sg5
g6
sa(dp712
g2
F444.25
sg3
S'131_10'
p713
sg5
g6
sa(dp714
g2
F292.0
sg3
S'131_11'
p715
sg5
g6
sa(dp716
g2
F191.75
sg3
S'131_12'
p717
sg5
g6
sa(dp718
g2
F329.0
sg3
S'131_13'
p719
sg5
g6
sa(dp720
g2
F483.0
sg3
S'131_14'
p721
sg5
g6
sa(dp722
g2
F353.25
sg3
S'132_01'
p723
sg5
g6
sa(dp724
g2
F285.25
sg3
S'132_02'
p725
sg5
g6
sa(dp726
g2
F369.25
sg3
S'132_03'
p727
sg5
g6
sa(dp728
g2
F337.5
sg3
S'132_04'
p729
sg5
g6
sa(dp730
g2
F329.0
sg3
S'132_05'
p731
sg5
g6
sa(dp732
g2
F332.0
sg3
S'132_06'
p733
sg5
g6
sa(dp734
g2
F225.75
sg3
S'132_07'
p735
sg5
g6
sa(dp736
g2
F363.25
sg3
S'132_08'
p737
sg5
g6
sa(dp738
g2
F295.5
sg3
S'132_09'
p739
sg5
g6
sa(dp740
g2
F406.0
sg3
S'132_10'
p741
sg5
g6
sa(dp742
g2
F402.5
sg3
S'132_11'
p743
sg5
g6
sa(dp744
g2
F395.25
sg3
S'132_12'
p745
sg5
g6
sa(dp746
g2
F2378.5
sg3
S'132_13'
p747
sg5
g6
sa(dp748
g2
F1871.0
sg3
S'132_14'
p749
sg5
g6
sa(dp750
g2
F1636.25
sg3
S'132_15'
p751
sg5
g6
sa(dp752
g2
F2326.5
sg3
S'132_16'
p753
sg5
g6
sa(dp754
g2
F67.0
sg3
S'132_17'
p755
sg5
g6
sa(dp756
g2
F106.25
sg3
S'132_18'
p757
sg5
g6
sa(dp758
g2
F67.75
sg3
S'132_19'
p759
sg5
g6
sa(dp760
g2
F85.5
sg3
S'132_20'
p761
sg5
g6
sa(dp762
g2
F88.5
sg3
S'132_21'
p763
sg5
g6
sa(dp764
g2
F92.75
sg3
S'132_22'
p765
sg5
g6
sa(dp766
g2
F186.5
sg3
S'132_23'
p767
sg5
g6
sa(dp768
g2
F184.75
sg3
S'132_24'
p769
sg5
g6
sa(dp770
g2
F139.0
sg3
S'132_25'
p771
sg5
g6
sa(dp772
g2
F181.75
sg3
S'132_27'
p773
sg5
g6
sa(dp774
g2
F179.5
sg3
S'132_28'
p775
sg5
g6
sa(dp776
g2
F194.25
sg3
S'132_29'
p777
sg5
g6
sa(dp778
g2
F195.75
sg3
S'132_30'
p779
sg5
g6
sa(dp780
g2
F179.5
sg3
S'132_31'
p781
sg5
g6
sa(dp782
g2
F161.0
sg3
S'132_32'
p783
sg5
g6
sa(dp784
g2
F102.75
sg3
S'132_33'
p785
sg5
g6
sa(dp786
g2
F129.25
sg3
S'132_34'
p787
sg5
g6
sa(dp788
g2
F316.25
sg3
S'132_35'
p789
sg5
g6
sa(dp790
g2
F973.75
sg3
S'132_36'
p791
sg5
g6
sa(dp792
g2
F1682.75
sg3
S'132_37'
p793
sg5
g6
sa(dp794
g2
F45.0
sg3
S'132_38'
p795
sg5
g6
sa(dp796
g2
F1562.25
sg3
S'132_39'
p797
sg5
g6
sa(dp798
g2
F211.75
sg3
S'132_40'
p799
sg5
g6
sa(dp800
g2
F1589.75
sg3
S'132_41'
p801
sg5
g6
sa(dp802
g2
F172.5
sg3
S'132_42'
p803
sg5
g6
sa(dp804
g2
F201.0
sg3
S'132_43'
p805
sg5
g6
sa(dp806
g2
F1300.75
sg3
S'132_44'
p807
sg5
g6
sa(dp808
g2
F382.75
sg3
S'132_45'
p809
sg5
g6
sa(dp810
g2
F305.75
sg3
S'132_46'
p811
sg5
g6
sa(dp812
g2
F377.5
sg3
S'132_47'
p813
sg5
g6
sa(dp814
g2
F406.25
sg3
S'132_48'
p815
sg5
g6
sa(dp816
g2
F437.0
sg3
S'132_49'
p817
sg5
g6
sa(dp818
g2
F534.75
sg3
S'132_50'
p819
sg5
g6
sa(dp820
g2
F43.5
sg3
S'132_51'
p821
sg5
g6
sa(dp822
g2
F333.75
sg3
S'132_52'
p823
sg5
g6
sa(dp824
g2
F1625.5
sg3
S'132_53'
p825
sg5
g6
sa(dp826
g2
F1507.25
sg3
S'132_54'
p827
sg5
g6
sa(dp828
g2
F773.75
sg3
S'132_55'
p829
sg5
g6
sa(dp830
g2
F1771.0
sg3
S'132_56'
p831
sg5
g6
sa(dp832
g2
F1529.0
sg3
S'135_01'
p833
sg5
g6
sa(dp834
g2
F1300.5
sg3
S'135_02'
p835
sg5
g6
sa(dp836
g2
F687.25
sg3
S'135_03'
p837
sg5
g6
sa(dp838
g2
F329.0
sg3
S'135_04'
p839
sg5
g6
sa(dp840
g2
F615.0
sg3
S'135_05'
p841
sg5
g6
sa(dp842
g2
F815.25
sg3
S'135_06'
p843
sg5
g6
sa(dp844
g2
F368.0
sg3
S'135_07'
p845
sg5
g6
sa(dp846
g2
F72.75
sg3
S'135_08'
p847
sg5
g6
sa(dp848
g2
F537.5
sg3
S'135_09'
p849
sg5
g6
sa(dp850
g2
F500.25
sg3
S'135_10'
p851
sg5
g6
sa(dp852
g2
F611.5
sg3
S'135_11'
p853
sg5
g6
sa(dp854
g2
F218.0
sg3
S'136_01'
p855
sg5
g6
sa(dp856
g2
F215.0
sg3
S'136_02'
p857
sg5
g6
sa(dp858
g2
F298.75
sg3
S'136_03'
p859
sg5
g6
sa(dp860
g2
F317.0
sg3
S'136_04'
p861
sg5
g6
sa(dp862
g2
F255.5
sg3
S'136_05'
p863
sg5
g6
sa(dp864
g2
F235.75
sg3
S'136_06'
p865
sg5
g6
sa(dp866
g2
F276.75
sg3
S'136_07'
p867
sg5
g6
sa(dp868
g2
F333.0
sg3
S'136_08'
p869
sg5
g6
sa(dp870
g2
F282.5
sg3
S'136_09'
p871
sg5
g6
sa(dp872
g2
F334.25
sg3
S'136_10'
p873
sg5
g6
sa(dp874
g2
F359.5
sg3
S'136_11'
p875
sg5
g6
sa(dp876
g2
F326.75
sg3
S'136_12'
p877
sg5
g6
sa(dp878
g2
F313.0
sg3
S'136_13'
p879
sg5
g6
sa(dp880
g2
F266.25
sg3
S'136_14'
p881
sg5
g6
sa(dp882
g2
F337.5
sg3
S'136_15'
p883
sg5
g6
sa(dp884
g2
F314.75
sg3
S'136_16'
p885
sg5
g6
sa(dp886
g2
F530.0
sg3
S'136_17'
p887
sg5
g6
sa(dp888
g2
F373.0
sg3
S'136_18'
p889
sg5
g6
sa(dp890
g2
F248.25
sg3
S'136_20'
p891
sg5
g6
sa(dp892
g2
F150.25
sg3
S'136_21'
p893
sg5
g6
sa(dp894
g2
F209.0
sg3
S'136_22'
p895
sg5
g6
sa(dp896
g2
F185.5
sg3
S'136_23'
p897
sg5
g6
sa(dp898
g2
F268.75
sg3
S'136_24'
p899
sg5
g6
sa(dp900
g2
F447.25
sg3
S'136_25'
p901
sg5
g6
sa(dp902
g2
F355.5
sg3
S'136_26'
p903
sg5
g6
sa(dp904
g2
F271.75
sg3
S'136_27'
p905
sg5
g6
sa(dp906
g2
F278.5
sg3
S'136_28'
p907
sg5
g6
sa(dp908
g2
F295.5
sg3
S'136_29'
p909
sg5
g6
sa(dp910
g2
F318.0
sg3
S'136_30'
p911
sg5
g6
sa(dp912
g2
F359.0
sg3
S'136_31'
p913
sg5
g6
sa(dp914
g2
F360.75
sg3
S'136_32'
p915
sg5
g6
sa(dp916
g2
F246.5
sg3
S'136_33'
p917
sg5
g6
sa(dp918
g2
F540.75
sg3
S'137_01'
p919
sg5
g6
sa(dp920
g2
F541.75
sg3
S'137_02'
p921
sg5
g6
sa(dp922
g2
F1635.25
sg3
S'137_03'
p923
sg5
g6
sa(dp924
g2
F484.25
sg3
S'137_04'
p925
sg5
g6
sa(dp926
g2
F439.75
sg3
S'137_05'
p927
sg5
g6
sa(dp928
g2
F407.25
sg3
S'137_06'
p929
sg5
g6
sa(dp930
g2
F1193.75
sg3
S'137_07'
p931
sg5
g6
sa(dp932
g2
F484.5
sg3
S'137_08'
p933
sg5
g6
sa(dp934
g2
F617.5
sg3
S'137_09'
p935
sg5
g6
sa(dp936
g2
F561.5
sg3
S'137_10'
p937
sg5
g6
sa(dp938
g2
F1232.5
sg3
S'137_11'
p939
sg5
g6
sa(dp940
g2
F492.25
sg3
S'137_12'
p941
sg5
g6
sa(dp942
g2
F740.75
sg3
S'137_13'
p943
sg5
g6
sa(dp944
g2
F566.0
sg3
S'137_14'
p945
sg5
g6
sa(dp946
g2
F1345.5
sg3
S'137_15'
p947
sg5
g6
sa(dp948
g2
F383.0
sg3
S'137_16'
p949
sg5
g6
sa(dp950
g2
F487.0
sg3
S'137_17'
p951
sg5
g6
sa(dp952
g2
F348.75
sg3
S'137_18'
p953
sg5
g6
sa(dp954
g2
F1330.25
sg3
S'137_19'
p955
sg5
g6
sa(dp956
g2
F400.75
sg3
S'137_20'
p957
sg5
g6
sa(dp958
g2
F478.5
sg3
S'137_21'
p959
sg5
g6
sa(dp960
g2
F410.5
sg3
S'137_22'
p961
sg5
g6
sa(dp962
g2
F1137.0
sg3
S'137_23'
p963
sg5
g6
sa(dp964
g2
F298.25
sg3
S'137_24'
p965
sg5
g6
sa(dp966
g2
F38.75
sg3
S'137_25'
p967
sg5
g6
sa(dp968
g2
F393.5
sg3
S'137_26'
p969
sg5
g6
sa(dp970
g2
F290.25
sg3
S'137_27'
p971
sg5
g6
sa(dp972
g2
F930.5
sg3
S'137_28'
p973
sg5
g6
sa(dp974
g2
F282.0
sg3
S'137_29'
p975
sg5
g6
sa(dp976
g2
F879.0
sg3
S'137_30'
p977
sg5
g6
sa(dp978
g2
F842.0
sg3
S'137_31'
p979
sg5
g6
sa(dp980
g2
F1254.5
sg3
S'137_32'
p981
sg5
g6
sa(dp982
g2
F766.0
sg3
S'137_33'
p983
sg5
g6
sa(dp984
g2
F224.0
sg3
S'137_34'
p985
sg5
g6
sa(dp986
g2
F623.0
sg3
S'137_35'
p987
sg5
g6
sa(dp988
g2
F639.0
sg3
S'137_36'
p989
sg5
g6
sa(dp990
g2
F1279.25
sg3
S'137_37'
p991
sg5
g6
sa(dp992
g2
F504.75
sg3
S'137_38'
p993
sg5
g6
sa(dp994
g2
F733.5
sg3
S'137_39'
p995
sg5
g6
sa(dp996
g2
F509.5
sg3
S'137_40'
p997
sg5
g6
sa(dp998
g2
F1298.5
sg3
S'137_41'
p999
sg5
g6
sa(dp1000
g2
F545.5
sg3
S'137_42'
p1001
sg5
g6
sa(dp1002
g2
F201.5
sg3
S'138_01'
p1003
sg5
g53
sa(dp1004
g2
F194.75
sg3
S'138_02'
p1005
sg5
g53
sa(dp1006
g2
F170.0
sg3
S'138_03'
p1007
sg5
g53
sa(dp1008
g2
F175.25
sg3
S'138_04'
p1009
sg5
g53
sa(dp1010
g2
F92.75
sg3
S'138_05'
p1011
sg5
g53
sa(dp1012
g2
F99.5
sg3
S'138_06'
p1013
sg5
g53
sa(dp1014
g2
F96.25
sg3
S'138_07'
p1015
sg5
g53
sa(dp1016
g2
F100.25
sg3
S'138_08'
p1017
sg5
g53
sa(dp1018
g2
F106.75
sg3
S'138_09'
p1019
sg5
g53
sa(dp1020
g2
F109.25
sg3
S'138_10'
p1021
sg5
g53
sa(dp1022
g2
F110.5
sg3
S'138_11'
p1023
sg5
g53
sa(dp1024
g2
F81.25
sg3
S'138_12'
p1025
sg5
g53
sa(dp1026
g2
F108.0
sg3
S'138_13'
p1027
sg5
g53
sa(dp1028
g2
F105.0
sg3
S'138_14'
p1029
sg5
g53
sa(dp1030
g2
F103.25
sg3
S'138_15'
p1031
sg5
g53
sa(dp1032
g2
F107.0
sg3
S'138_16'
p1033
sg5
g53
sa(dp1034
g2
F110.0
sg3
S'138_17'
p1035
sg5
g53
sa(dp1036
g2
F96.75
sg3
S'138_18'
p1037
sg5
g53
sa(dp1038
g2
F115.0
sg3
S'138_19'
p1039
sg5
g53
sa(dp1040
g2
F112.5
sg3
S'138_20'
p1041
sg5
g53
sa(dp1042
g2
F98.75
sg3
S'138_21'
p1043
sg5
g53
sa(dp1044
g2
F96.5
sg3
S'138_22'
p1045
sg5
g53
sa(dp1046
g2
F114.75
sg3
S'138_23'
p1047
sg5
g53
sa(dp1048
g2
F125.75
sg3
S'138_24'
p1049
sg5
g53
sa(dp1050
g2
F89.25
sg3
S'138_25'
p1051
sg5
g53
sa(dp1052
g2
F237.0
sg3
S'138_26'
p1053
sg5
g53
sa(dp1054
g2
F234.5
sg3
S'138_27'
p1055
sg5
g53
sa(dp1056
g2
F239.5
sg3
S'138_28'
p1057
sg5
g53
sa(dp1058
g2
F203.75
sg3
S'138_29'
p1059
sg5
g53
sa(dp1060
g2
F271.5
sg3
S'138_30'
p1061
sg5
g53
sa(dp1062
g2
F227.25
sg3
S'138_32'
p1063
sg5
g53
sa(dp1064
g2
F261.25
sg3
S'138_33'
p1065
sg5
g53
sa(dp1066
g2
F230.75
sg3
S'138_34'
p1067
sg5
g53
sa(dp1068
g2
F227.25
sg3
S'138_35'
p1069
sg5
g53
sa(dp1070
g2
F269.75
sg3
S'138_36'
p1071
sg5
g53
sa(dp1072
g2
F202.25
sg3
S'138_37'
p1073
sg5
g53
sa(dp1074
g2
F241.25
sg3
S'138_38'
p1075
sg5
g53
sa(dp1076
g2
F219.25
sg3
S'138_39'
p1077
sg5
g53
sa(dp1078
g2
F204.75
sg3
S'138_40'
p1079
sg5
g53
sa(dp1080
g2
F196.0
sg3
S'138_41'
p1081
sg5
g53
sa(dp1082
g2
F252.5
sg3
S'138_44'
p1083
sg5
g53
sa(dp1084
g2
F79.0
sg3
S'138_46'
p1085
sg5
g53
sa(dp1086
g2
F170.75
sg3
S'138_47'
p1087
sg5
g53
sa(dp1088
g2
F157.5
sg3
S'138_48'
p1089
sg5
g53
sa(dp1090
g2
F175.75
sg3
S'138_51'
p1091
sg5
g53
sa(dp1092
g2
F217.5
sg3
S'138_52'
p1093
sg5
g53
sa(dp1094
g2
F188.75
sg3
S'138_53'
p1095
sg5
g53
sa(dp1096
g2
F99.0
sg3
S'138_55'
p1097
sg5
g53
sa(dp1098
g2
F109.75
sg3
S'13_13'
p1099
sg5
g53
sa(dp1100
g2
F1210.0
sg3
S'13_17'
p1101
sg5
g53
sa(dp1102
g2
F757.0
sg3
S'13_26'
p1103
sg5
g53
sa(dp1104
g2
F344.75
sg3
S'13_36'
p1105
sg5
g53
sa(dp1106
g2
F190.75
sg3
S'141_20'
p1107
sg5
g6
sa(dp1108
g2
F25.0
sg3
S'143_01'
p1109
sg5
g6
sa(dp1110
g2
F52.0
sg3
S'143_02'
p1111
sg5
g6
sa(dp1112
g2
F59.75
sg3
S'143_03'
p1113
sg5
g6
sa(dp1114
g2
F271.25
sg3
S'143_04'
p1115
sg5
g6
sa(dp1116
g2
F84.5
sg3
S'143_05'
p1117
sg5
g6
sa(dp1118
g2
F98.25
sg3
S'143_06'
p1119
sg5
g6
sa(dp1120
g2
F139.25
sg3
S'143_07'
p1121
sg5
g6
sa(dp1122
g2
F96.75
sg3
S'143_08'
p1123
sg5
g6
sa(dp1124
g2
F136.25
sg3
S'143_09'
p1125
sg5
g6
sa(dp1126
g2
F143.75
sg3
S'143_10'
p1127
sg5
g6
sa(dp1128
g2
F164.25
sg3
S'143_11'
p1129
sg5
g6
sa(dp1130
g2
F147.5
sg3
S'143_12'
p1131
sg5
g6
sa(dp1132
g2
F145.25
sg3
S'143_13'
p1133
sg5
g6
sa(dp1134
g2
F181.25
sg3
S'143_14'
p1135
sg5
g6
sa(dp1136
g2
F177.0
sg3
S'143_15'
p1137
sg5
g6
sa(dp1138
g2
F152.75
sg3
S'143_16'
p1139
sg5
g6
sa(dp1140
g2
F158.0
sg3
S'143_17'
p1141
sg5
g6
sa(dp1142
g2
F188.0
sg3
S'143_18'
p1143
sg5
g6
sa(dp1144
g2
F209.75
sg3
S'143_19'
p1145
sg5
g6
sa(dp1146
g2
F162.75
sg3
S'143_20'
p1147
sg5
g6
sa(dp1148
g2
F538.0
sg3
S'143_21'
p1149
sg5
g6
sa(dp1150
g2
F272.75
sg3
S'143_22'
p1151
sg5
g6
sa(dp1152
g2
F203.5
sg3
S'143_23'
p1153
sg5
g6
sa(dp1154
g2
F251.25
sg3
S'143_24'
p1155
sg5
g6
sa(dp1156
g2
F164.5
sg3
S'143_25'
p1157
sg5
g6
sa(dp1158
g2
F158.75
sg3
S'143_26'
p1159
sg5
g6
sa(dp1160
g2
F176.0
sg3
S'143_27'
p1161
sg5
g6
sa(dp1162
g2
F160.75
sg3
S'143_28'
p1163
sg5
g6
sa(dp1164
g2
F270.0
sg3
S'143_29'
p1165
sg5
g6
sa(dp1166
g2
F92.5
sg3
S'143_30'
p1167
sg5
g6
sa(dp1168
g2
F105.75
sg3
S'143_31'
p1169
sg5
g6
sa(dp1170
g2
F195.0
sg3
S'143_32'
p1171
sg5
g6
sa(dp1172
g2
F90.25
sg3
S'143_33'
p1173
sg5
g6
sa(dp1174
g2
F195.75
sg3
S'143_34'
p1175
sg5
g6
sa(dp1176
g2
F319.75
sg3
S'143_35'
p1177
sg5
g6
sa(dp1178
g2
F190.25
sg3
S'143_36'
p1179
sg5
g6
sa(dp1180
g2
F137.75
sg3
S'143_37'
p1181
sg5
g6
sa(dp1182
g2
F329.25
sg3
S'143_38'
p1183
sg5
g6
sa(dp1184
g2
F270.75
sg3
S'143_39'
p1185
sg5
g6
sa(dp1186
g2
F241.5
sg3
S'143_40'
p1187
sg5
g6
sa(dp1188
g2
F291.75
sg3
S'143_41'
p1189
sg5
g6
sa(dp1190
g2
F134.25
sg3
S'143_42'
p1191
sg5
g6
sa(dp1192
g2
F614.75
sg3
S'144_01'
p1193
sg5
g6
sa(dp1194
g2
F581.0
sg3
S'144_02'
p1195
sg5
g6
sa(dp1196
g2
F1119.75
sg3
S'144_03'
p1197
sg5
g6
sa(dp1198
g2
F968.5
sg3
S'144_04'
p1199
sg5
g6
sa(dp1200
g2
F696.5
sg3
S'144_05'
p1201
sg5
g6
sa(dp1202
g2
F908.25
sg3
S'144_06'
p1203
sg5
g6
sa(dp1204
g2
F612.0
sg3
S'144_07'
p1205
sg5
g6
sa(dp1206
g2
F750.25
sg3
S'144_08'
p1207
sg5
g6
sa(dp1208
g2
F845.5
sg3
S'144_09'
p1209
sg5
g6
sa(dp1210
g2
F874.5
sg3
S'144_10'
p1211
sg5
g6
sa(dp1212
g2
F857.25
sg3
S'144_11'
p1213
sg5
g6
sa(dp1214
g2
F829.75
sg3
S'144_12'
p1215
sg5
g6
sa(dp1216
g2
F486.5
sg3
S'144_13'
p1217
sg5
g6
sa(dp1218
g2
F513.75
sg3
S'144_14'
p1219
sg5
g6
sa(dp1220
g2
F825.5
sg3
S'144_15'
p1221
sg5
g6
sa(dp1222
g2
F772.0
sg3
S'144_16'
p1223
sg5
g6
sa(dp1224
g2
F705.0
sg3
S'144_17'
p1225
sg5
g6
sa(dp1226
g2
F774.0
sg3
S'144_18'
p1227
sg5
g6
sa(dp1228
g2
F86.75
sg3
S'144_19'
p1229
sg5
g6
sa(dp1230
g2
F567.5
sg3
S'144_20'
p1231
sg5
g6
sa(dp1232
g2
F482.5
sg3
S'144_21'
p1233
sg5
g6
sa(dp1234
g2
F834.75
sg3
S'144_22'
p1235
sg5
g6
sa(dp1236
g2
F852.25
sg3
S'144_23'
p1237
sg5
g6
sa(dp1238
g2
F1175.25
sg3
S'144_24'
p1239
sg5
g6
sa(dp1240
g2
F833.75
sg3
S'144_25'
p1241
sg5
g6
sa(dp1242
g2
F836.75
sg3
S'144_26'
p1243
sg5
g6
sa(dp1244
g2
F663.75
sg3
S'144_27'
p1245
sg5
g6
sa(dp1246
g2
F571.5
sg3
S'144_28'
p1247
sg5
g6
sa(dp1248
g2
F770.75
sg3
S'144_29'
p1249
sg5
g6
sa(dp1250
g2
F1238.75
sg3
S'144_30'
p1251
sg5
g6
sa(dp1252
g2
F1208.25
sg3
S'144_31'
p1253
sg5
g6
sa(dp1254
g2
F1300.5
sg3
S'144_32'
p1255
sg5
g6
sa(dp1256
g2
F1253.5
sg3
S'144_33'
p1257
sg5
g6
sa(dp1258
g2
F1172.0
sg3
S'144_34'
p1259
sg5
g6
sa(dp1260
g2
F1381.0
sg3
S'15_01'
p1261
sg5
g6
sa(dp1262
g2
F5491.25
sg3
S'15_02'
p1263
sg5
g6
sa(dp1264
g2
F3137.5
sg3
S'15_03'
p1265
sg5
g6
sa(dp1266
g2
F5637.25
sg3
S'15_04'
p1267
sg5
g6
sa(dp1268
g2
F5737.0
sg3
S'15_05'
p1269
sg5
g6
sa(dp1270
g2
F901.0
sg3
S'15_06'
p1271
sg5
g6
sa(dp1272
g2
F1374.5
sg3
S'15_07'
p1273
sg5
g6
sa(dp1274
g2
F964.75
sg3
S'15_08'
p1275
sg5
g6
sa(dp1276
g2
F1968.75
sg3
S'15_09'
p1277
sg5
g6
sa(dp1278
g2
F695.25
sg3
S'15_10'
p1279
sg5
g6
sa(dp1280
g2
F2348.5
sg3
S'15_11'
p1281
sg5
g6
sa(dp1282
g2
F2271.5
sg3
S'15_12'
p1283
sg5
g6
sa(dp1284
g2
F2332.5
sg3
S'15_13'
p1285
sg5
g6
sa(dp1286
g2
F2246.5
sg3
S'15_14'
p1287
sg5
g6
sa(dp1288
g2
F86.75
sg3
S'16_34'
p1289
sg5
g6
sa(dp1290
g2
F40.5
sg3
S'16_35'
p1291
sg5
g6
sa(dp1292
g2
F1576.25
sg3
S'17_01'
p1293
sg5
g6
sa(dp1294
g2
F1590.5
sg3
S'17_02'
p1295
sg5
g6
sa(dp1296
g2
F1588.25
sg3
S'17_03'
p1297
sg5
g6
sa(dp1298
g2
F1595.75
sg3
S'17_04'
p1299
sg5
g6
sa(dp1300
g2
F1584.75
sg3
S'17_05'
p1301
sg5
g6
sa(dp1302
g2
F1550.0
sg3
S'17_06'
p1303
sg5
g6
sa(dp1304
g2
F1606.5
sg3
S'17_07'
p1305
sg5
g6
sa(dp1306
g2
F1544.75
sg3
S'17_08'
p1307
sg5
g6
sa(dp1308
g2
F1519.75
sg3
S'17_09'
p1309
sg5
g6
sa(dp1310
g2
F695.75
sg3
S'17_10'
p1311
sg5
g6
sa(dp1312
g2
F75.75
sg3
S'18_01'
p1313
sg5
g6
sa(dp1314
g2
F75.25
sg3
S'18_02'
p1315
sg5
g6
sa(dp1316
g2
F148.0
sg3
S'18_03'
p1317
sg5
g6
sa(dp1318
g2
F101.25
sg3
S'18_04'
p1319
sg5
g6
sa(dp1320
g2
F109.5
sg3
S'18_05'
p1321
sg5
g6
sa(dp1322
g2
F101.75
sg3
S'18_06'
p1323
sg5
g6
sa(dp1324
g2
F72.75
sg3
S'18_07'
p1325
sg5
g6
sa(dp1326
g2
F521.5
sg3
S'18_08'
p1327
sg5
g6
sa(dp1328
g2
F58.0
sg3
S'18_09'
p1329
sg5
g6
sa(dp1330
g2
F451.25
sg3
S'18_10'
p1331
sg5
g6
sa(dp1332
g2
F477.75
sg3
S'18_11'
p1333
sg5
g6
sa(dp1334
g2
F313.25
sg3
S'18_12'
p1335
sg5
g6
sa(dp1336
g2
F116.5
sg3
S'18_13'
p1337
sg5
g6
sa(dp1338
g2
F83.0
sg3
S'18_14'
p1339
sg5
g6
sa(dp1340
g2
F384.0
sg3
S'18_15'
p1341
sg5
g6
sa(dp1342
g2
F75.75
sg3
S'19_01'
p1343
sg5
g6
sa(dp1344
g2
F75.25
sg3
S'19_02'
p1345
sg5
g6
sa(dp1346
g2
F148.0
sg3
S'19_03'
p1347
sg5
g6
sa(dp1348
g2
F101.25
sg3
S'19_04'
p1349
sg5
g6
sa(dp1350
g2
F109.5
sg3
S'19_05'
p1351
sg5
g6
sa(dp1352
g2
F101.75
sg3
S'19_06'
p1353
sg5
g6
sa(dp1354
g2
F72.75
sg3
S'19_07'
p1355
sg5
g6
sa(dp1356
g2
F521.5
sg3
S'19_08'
p1357
sg5
g6
sa(dp1358
g2
F58.0
sg3
S'19_09'
p1359
sg5
g6
sa(dp1360
g2
F451.25
sg3
S'19_10'
p1361
sg5
g6
sa(dp1362
g2
F477.75
sg3
S'19_11'
p1363
sg5
g6
sa(dp1364
g2
F313.25
sg3
S'19_12'
p1365
sg5
g6
sa(dp1366
g2
F116.5
sg3
S'19_13'
p1367
sg5
g6
sa(dp1368
g2
F83.0
sg3
S'19_14'
p1369
sg5
g6
sa(dp1370
g2
F384.0
sg3
S'19_15'
p1371
sg5
g6
sa(dp1372
g2
F518.0
sg3
S'24_01'
p1373
sg5
g53
sa(dp1374
g2
F404.5
sg3
S'25_01'
p1375
sg5
g6
sa(dp1376
g2
F221.0
sg3
S'26_01'
p1377
sg5
g6
sa(dp1378
g2
F1514.5
sg3
S'26_02'
p1379
sg5
g6
sa(dp1380
g2
F559.5
sg3
S'26_03'
p1381
sg5
g6
sa(dp1382
g2
F541.25
sg3
S'26_04'
p1383
sg5
g6
sa(dp1384
g2
F908.75
sg3
S'26_05'
p1385
sg5
g6
sa(dp1386
g2
F900.5
sg3
S'26_06'
p1387
sg5
g6
sa(dp1388
g2
F1939.25
sg3
S'26_07'
p1389
sg5
g6
sa(dp1390
g2
F1917.5
sg3
S'26_08'
p1391
sg5
g6
sa(dp1392
g2
F185.0
sg3
S'26_09'
p1393
sg5
g6
sa(dp1394
g2
F174.25
sg3
S'26_10'
p1395
sg5
g6
sa(dp1396
g2
F137.25
sg3
S'26_11'
p1397
sg5
g6
sa(dp1398
g2
F258.25
sg3
S'27_01'
p1399
sg5
g53
sa(dp1400
g2
F891.25
sg3
S'27_02'
p1401
sg5
g53
sa(dp1402
g2
F537.5
sg3
S'27_03'
p1403
sg5
g53
sa(dp1404
g2
F911.0
sg3
S'27_04'
p1405
sg5
g53
sa(dp1406
g2
F1930.5
sg3
S'27_05'
p1407
sg5
g53
sa(dp1408
g2
F717.5
sg3
S'27_06'
p1409
sg5
g53
sa(dp1410
g2
F447.75
sg3
S'27_07'
p1411
sg5
g53
sa(dp1412
g2
F877.75
sg3
S'27_08'
p1413
sg5
g53
sa(dp1414
g2
F943.75
sg3
S'27_09'
p1415
sg5
g53
sa(dp1416
g2
F1949.5
sg3
S'27_10'
p1417
sg5
g53
sa(dp1418
g2
F484.25
sg3
S'27_11'
p1419
sg5
g53
sa(dp1420
g2
F782.25
sg3
S'28_01'
p1421
sg5
g6
sa(dp1422
g2
F513.75
sg3
S'28_02'
p1423
sg5
g6
sa(dp1424
g2
F943.0
sg3
S'28_03'
p1425
sg5
g6
sa(dp1426
g2
F1974.5
sg3
S'28_04'
p1427
sg5
g6
sa(dp1428
g2
F810.75
sg3
S'28_05'
p1429
sg5
g6
sa(dp1430
g2
F553.25
sg3
S'28_06'
p1431
sg5
g6
sa(dp1432
g2
F914.5
sg3
S'28_07'
p1433
sg5
g6
sa(dp1434
g2
F1985.0
sg3
S'28_08'
p1435
sg5
g6
sa(dp1436
g2
F428.25
sg3
S'28_09'
p1437
sg5
g6
sa(dp1438
g2
F518.75
sg3
S'28_10'
p1439
sg5
g6
sa(dp1440
g2
F1654.0
sg3
S'28_11'
p1441
sg5
g6
sa(dp1442
g2
F1286.75
sg3
S'28_12'
p1443
sg5
g6
sa(dp1444
g2
F1472.25
sg3
S'28_13'
p1445
sg5
g6
sa(dp1446
g2
F935.5
sg3
S'28_14'
p1447
sg5
g6
sa(dp1448
g2
F860.75
sg3
S'28_15'
p1449
sg5
g6
sa(dp1450
g2
F1400.25
sg3
S'28_16'
p1451
sg5
g6
sa(dp1452
g2
F1334.5
sg3
S'28_17'
p1453
sg5
g6
sa(dp1454
g2
F1061.5
sg3
S'28_18'
p1455
sg5
g6
sa(dp1456
g2
F1130.5
sg3
S'28_19'
p1457
sg5
g6
sa(dp1458
g2
F1043.5
sg3
S'30_03'
p1459
sg5
g53
sa(dp1460
g2
F643.75
sg3
S'30_14'
p1461
sg5
g53
sa(dp1462
g2
F854.75
sg3
S'30_20'
p1463
sg5
g53
sa(dp1464
g2
F821.5
sg3
S'30_22'
p1465
sg5
g53
sa(dp1466
g2
F120.5
sg3
S'32_01'
p1467
sg5
g6
sa(dp1468
g2
F108.5
sg3
S'32_02'
p1469
sg5
g6
sa(dp1470
g2
F809.5
sg3
S'32_03'
p1471
sg5
g6
sa(dp1472
g2
F577.5
sg3
S'32_04'
p1473
sg5
g6
sa(dp1474
g2
F912.0
sg3
S'32_05'
p1475
sg5
g6
sa(dp1476
g2
F1962.75
sg3
S'32_06'
p1477
sg5
g6
sa(dp1478
g2
F779.75
sg3
S'32_07'
p1479
sg5
g6
sa(dp1480
g2
F560.0
sg3
S'32_08'
p1481
sg5
g6
sa(dp1482
g2
F1985.5
sg3
S'32_10'
p1483
sg5
g6
sa(dp1484
g2
F3671.0
sg3
S'32_11'
p1485
sg5
g6
sa(dp1486
g2
F3676.0
sg3
S'32_12'
p1487
sg5
g6
sa(dp1488
g2
F906.75
sg3
S'32_15'
p1489
sg5
g6
sa(dp1490
g2
F1097.5
sg3
S'32_16'
p1491
sg5
g6
sa(dp1492
g2
F828.0
sg3
S'32_17'
p1493
sg5
g6
sa(dp1494
g2
F758.0
sg3
S'32_18'
p1495
sg5
g6
sa(dp1496
g2
F577.75
sg3
S'32_19'
p1497
sg5
g6
sa(dp1498
g2
F888.75
sg3
S'32_20'
p1499
sg5
g6
sa(dp1500
g2
F509.5
sg3
S'32_21'
p1501
sg5
g6
sa(dp1502
g2
F89.5
sg3
S'35_01'
p1503
sg5
g6
sa(dp1504
g2
F101.5
sg3
S'35_02'
p1505
sg5
g6
sa(dp1506
g2
F101.5
sg3
S'35_15'
p1507
sg5
g6
sa(dp1508
g2
F110.75
sg3
S'35_16'
p1509
sg5
g6
sa(dp1510
g2
F41.75
sg3
S'35_17'
p1511
sg5
g6
sa(dp1512
g2
F43.75
sg3
S'35_18'
p1513
sg5
g6
sa(dp1514
g2
F40.0
sg3
S'35_19'
p1515
sg5
g6
sa(dp1516
g2
F40.75
sg3
S'35_20'
p1517
sg5
g6
sa(dp1518
g2
F40.25
sg3
S'35_21'
p1519
sg5
g6
sa(dp1520
g2
F41.75
sg3
S'35_22'
p1521
sg5
g6
sa(dp1522
g2
F40.5
sg3
S'35_23'
p1523
sg5
g6
sa(dp1524
g2
F37.5
sg3
S'35_24'
p1525
sg5
g6
sa(dp1526
g2
F41.25
sg3
S'35_25'
p1527
sg5
g6
sa(dp1528
g2
F34.5
sg3
S'35_26'
p1529
sg5
g6
sa(dp1530
g2
F2451.75
sg3
S'35_27'
p1531
sg5
g6
sa(dp1532
g2
F104.25
sg3
S'35_28'
p1533
sg5
g6
sa(dp1534
g2
F124.25
sg3
S'35_29'
p1535
sg5
g6
sa(dp1536
g2
F103.0
sg3
S'35_30'
p1537
sg5
g6
sa(dp1538
g2
F105.25
sg3
S'35_31'
p1539
sg5
g6
sa(dp1540
g2
F98.0
sg3
S'35_32'
p1541
sg5
g6
sa(dp1542
g2
F105.25
sg3
S'35_33'
p1543
sg5
g6
sa(dp1544
g2
F103.75
sg3
S'35_34'
p1545
sg5
g6
sa(dp1546
g2
F139.25
sg3
S'36_01'
p1547
sg5
g53
sa(dp1548
g2
F1068.25
sg3
S'36_02'
p1549
sg5
g53
sa(dp1550
g2
F963.0
sg3
S'36_03'
p1551
sg5
g53
sa(dp1552
g2
F931.5
sg3
S'36_04'
p1553
sg5
g53
sa(dp1554
g2
F1049.0
sg3
S'36_05'
p1555
sg5
g53
sa(dp1556
g2
F974.0
sg3
S'36_06'
p1557
sg5
g53
sa(dp1558
g2
F943.0
sg3
S'36_07'
p1559
sg5
g53
sa(dp1560
g2
F928.5
sg3
S'36_08'
p1561
sg5
g53
sa(dp1562
g2
F972.5
sg3
S'36_09'
p1563
sg5
g53
sa(dp1564
g2
F958.0
sg3
S'36_10'
p1565
sg5
g53
sa(dp1566
g2
F1042.0
sg3
S'36_11'
p1567
sg5
g53
sa(dp1568
g2
F1146.25
sg3
S'36_12'
p1569
sg5
g53
sa(dp1570
g2
F1061.75
sg3
S'36_13'
p1571
sg5
g53
sa(dp1572
g2
F1036.5
sg3
S'36_14'
p1573
sg5
g53
sa(dp1574
g2
F1041.0
sg3
S'36_15'
p1575
sg5
g53
sa(dp1576
g2
F1098.75
sg3
S'36_16'
p1577
sg5
g53
sa(dp1578
g2
F1089.75
sg3
S'36_17'
p1579
sg5
g53
sa(dp1580
g2
F1076.0
sg3
S'36_18'
p1581
sg5
g53
sa(dp1582
g2
F1048.25
sg3
S'36_19'
p1583
sg5
g53
sa(dp1584
g2
F1022.5
sg3
S'36_20'
p1585
sg5
g53
sa(dp1586
g2
F1007.5
sg3
S'36_21'
p1587
sg5
g53
sa(dp1588
g2
F1078.0
sg3
S'36_22'
p1589
sg5
g53
sa(dp1590
g2
F1098.0
sg3
S'36_23'
p1591
sg5
g53
sa(dp1592
g2
F1038.25
sg3
S'36_24'
p1593
sg5
g53
sa(dp1594
g2
F1171.25
sg3
S'36_25'
p1595
sg5
g53
sa(dp1596
g2
F1059.25
sg3
S'36_26'
p1597
sg5
g53
sa(dp1598
g2
F1061.75
sg3
S'36_27'
p1599
sg5
g53
sa(dp1600
g2
F597.75
sg3
S'36_28'
p1601
sg5
g53
sa(dp1602
g2
F1117.25
sg3
S'36_29'
p1603
sg5
g53
sa(dp1604
g2
F1103.5
sg3
S'36_30'
p1605
sg5
g53
sa(dp1606
g2
F934.0
sg3
S'36_31'
p1607
sg5
g53
sa(dp1608
g2
F1117.0
sg3
S'36_32'
p1609
sg5
g53
sa(dp1610
g2
F1077.75
sg3
S'36_33'
p1611
sg5
g53
sa(dp1612
g2
F1082.0
sg3
S'36_34'
p1613
sg5
g53
sa(dp1614
g2
F1085.25
sg3
S'36_35'
p1615
sg5
g53
sa(dp1616
g2
F1198.0
sg3
S'36_36'
p1617
sg5
g53
sa(dp1618
g2
F1082.0
sg3
S'36_37'
p1619
sg5
g53
sa(dp1620
g2
F127.75
sg3
S'37_01'
p1621
sg5
g6
sa(dp1622
g2
F88.0
sg3
S'38_01'
p1623
sg5
g6
sa(dp1624
g2
F105.0
sg3
S'38_02'
p1625
sg5
g6
sa(dp1626
g2
F190.25
sg3
S'38_03'
p1627
sg5
g6
sa(dp1628
g2
F2157.75
sg3
S'38_04'
p1629
sg5
g6
sa(dp1630
g2
F94.5
sg3
S'39_01'
p1631
sg5
g53
sa(dp1632
g2
F100.0
sg3
S'39_02'
p1633
sg5
g53
sa(dp1634
g2
F101.75
sg3
S'39_03'
p1635
sg5
g53
sa(dp1636
g2
F102.5
sg3
S'39_04'
p1637
sg5
g53
sa(dp1638
g2
F100.0
sg3
S'39_05'
p1639
sg5
g53
sa(dp1640
g2
F92.0
sg3
S'39_06'
p1641
sg5
g53
sa(dp1642
g2
F91.75
sg3
S'39_07'
p1643
sg5
g53
sa(dp1644
g2
F87.5
sg3
S'39_08'
p1645
sg5
g53
sa(dp1646
g2
F98.75
sg3
S'39_09'
p1647
sg5
g53
sa(dp1648
g2
F97.75
sg3
S'39_10'
p1649
sg5
g53
sa(dp1650
g2
F223.5
sg3
S'39_11'
p1651
sg5
g53
sa(dp1652
g2
F106.75
sg3
S'39_12'
p1653
sg5
g53
sa(dp1654
g2
F94.5
sg3
S'39_13'
p1655
sg5
g53
sa(dp1656
g2
F99.75
sg3
S'39_14'
p1657
sg5
g53
sa(dp1658
g2
F1248.5
sg3
S'40_02'
p1659
sg5
g53
sa(dp1660
g2
F1547.0
sg3
S'40_03'
p1661
sg5
g53
sa(dp1662
g2
F1474.25
sg3
S'40_04'
p1663
sg5
g53
sa(dp1664
g2
F1521.25
sg3
S'40_05'
p1665
sg5
g53
sa(dp1666
g2
F1645.75
sg3
S'40_06'
p1667
sg5
g53
sa(dp1668
g2
F1720.5
sg3
S'40_07'
p1669
sg5
g53
sa(dp1670
g2
F1739.75
sg3
S'40_08'
p1671
sg5
g53
sa(dp1672
g2
F1291.75
sg3
S'40_09'
p1673
sg5
g53
sa(dp1674
g2
F1553.5
sg3
S'40_10'
p1675
sg5
g53
sa(dp1676
g2
F1505.0
sg3
S'40_11'
p1677
sg5
g53
sa(dp1678
g2
F2109.25
sg3
S'40_12'
p1679
sg5
g53
sa(dp1680
g2
F105.25
sg3
S'43_01'
p1681
sg5
g6
sa(dp1682
g2
F226.0
sg3
S'43_02'
p1683
sg5
g6
sa(dp1684
g2
F210.0
sg3
S'43_03'
p1685
sg5
g6
sa(dp1686
g2
F114.0
sg3
S'45_01'
p1687
sg5
g6
sa(dp1688
g2
F154.0
sg3
S'46_01'
p1689
sg5
g6
sa(dp1690
g2
F480.25
sg3
S'54_01'
p1691
sg5
g6
sa(dp1692
g2
F752.25
sg3
S'54_02'
p1693
sg5
g6
sa(dp1694
g2
F693.0
sg3
S'54_03'
p1695
sg5
g6
sa(dp1696
g2
F1152.25
sg3
S'54_04'
p1697
sg5
g6
sa(dp1698
g2
F266.75
sg3
S'54_05'
p1699
sg5
g6
sa(dp1700
g2
F1969.5
sg3
S'54_06'
p1701
sg5
g6
sa(dp1702
g2
F1002.5
sg3
S'54_07'
p1703
sg5
g6
sa(dp1704
g2
F483.0
sg3
S'54_09'
p1705
sg5
g6
sa(dp1706
g2
F1177.75
sg3
S'54_10'
p1707
sg5
g6
sa(dp1708
g2
F853.5
sg3
S'54_11'
p1709
sg5
g6
sa(dp1710
g2
F573.25
sg3
S'54_12'
p1711
sg5
g6
sa(dp1712
g2
F407.75
sg3
S'54_13'
p1713
sg5
g6
sa(dp1714
g2
F407.0
sg3
S'54_14'
p1715
sg5
g6
sa(dp1716
g2
F1031.0
sg3
S'54_15'
p1717
sg5
g6
sa(dp1718
g2
F1030.5
sg3
S'54_16'
p1719
sg5
g6
sa(dp1720
g2
F705.0
sg3
S'54_17'
p1721
sg5
g6
sa(dp1722
g2
F506.0
sg3
S'54_18'
p1723
sg5
g6
sa(dp1724
g2
F1222.5
sg3
S'54_19'
p1725
sg5
g6
sa(dp1726
g2
F1549.0
sg3
S'54_20'
p1727
sg5
g6
sa(dp1728
g2
F1747.0
sg3
S'54_21'
p1729
sg5
g6
sa(dp1730
g2
F633.5
sg3
S'54_22'
p1731
sg5
g6
sa(dp1732
g2
F1074.75
sg3
S'54_23'
p1733
sg5
g6
sa(dp1734
g2
F671.75
sg3
S'54_24'
p1735
sg5
g6
sa(dp1736
g2
F1135.5
sg3
S'54_25'
p1737
sg5
g6
sa(dp1738
g2
F490.25
sg3
S'54_26'
p1739
sg5
g6
sa(dp1740
g2
F860.0
sg3
S'54_27'
p1741
sg5
g6
sa(dp1742
g2
F451.5
sg3
S'55_01'
p1743
sg5
g6
sa(dp1744
g2
F545.0
sg3
S'55_02'
p1745
sg5
g6
sa(dp1746
g2
F1132.5
sg3
S'55_03'
p1747
sg5
g6
sa(dp1748
g2
F132.5
sg3
S'55_04'
p1749
sg5
g6
sa(dp1750
g2
F703.0
sg3
S'55_05'
p1751
sg5
g6
sa(dp1752
g2
F2318.75
sg3
S'55_06'
p1753
sg5
g6
sa(dp1754
g2
F1142.0
sg3
S'55_07'
p1755
sg5
g6
sa(dp1756
g2
F1335.0
sg3
S'55_08'
p1757
sg5
g6
sa(dp1758
g2
F1055.0
sg3
S'55_09'
p1759
sg5
g6
sa(dp1760
g2
F340.5
sg3
S'55_10'
p1761
sg5
g6
sa(dp1762
g2
F1091.25
sg3
S'55_11'
p1763
sg5
g6
sa(dp1764
g2
F518.75
sg3
S'55_12'
p1765
sg5
g6
sa(dp1766
g2
F2434.5
sg3
S'55_13'
p1767
sg5
g6
sa(dp1768
g2
F1300.5
sg3
S'55_14'
p1769
sg5
g6
sa(dp1770
g2
F2423.25
sg3
S'55_15'
p1771
sg5
g6
sa(dp1772
g2
F1520.5
sg3
S'55_16'
p1773
sg5
g6
sa(dp1774
g2
F1544.0
sg3
S'55_17'
p1775
sg5
g6
sa(dp1776
g2
F1346.75
sg3
S'55_18'
p1777
sg5
g6
sa(dp1778
g2
F1185.25
sg3
S'55_19'
p1779
sg5
g6
sa(dp1780
g2
F1149.5
sg3
S'55_20'
p1781
sg5
g6
sa(dp1782
g2
F874.75
sg3
S'55_21'
p1783
sg5
g6
sa(dp1784
g2
F1635.25
sg3
S'55_22'
p1785
sg5
g6
sa(dp1786
g2
F1492.75
sg3
S'55_23'
p1787
sg5
g6
sa(dp1788
g2
F2380.5
sg3
S'55_24'
p1789
sg5
g6
sa(dp1790
g2
F797.0
sg3
S'55_25'
p1791
sg5
g6
sa(dp1792
g2
F1025.75
sg3
S'55_26'
p1793
sg5
g6
sa(dp1794
g2
F1250.75
sg3
S'55_27'
p1795
sg5
g6
sa(dp1796
g2
F2077.25
sg3
S'55_28'
p1797
sg5
g6
sa(dp1798
g2
F270.5
sg3
S'62_01'
p1799
sg5
g6
sa(dp1800
g2
F260.0
sg3
S'62_02'
p1801
sg5
g6
sa(dp1802
g2
F344.25
sg3
S'62_03'
p1803
sg5
g6
sa(dp1804
g2
F338.25
sg3
S'62_04'
p1805
sg5
g6
sa(dp1806
g2
F289.5
sg3
S'62_05'
p1807
sg5
g6
sa(dp1808
g2
F662.5
sg3
S'62_06'
p1809
sg5
g6
sa(dp1810
g2
F278.5
sg3
S'62_07'
p1811
sg5
g6
sa(dp1812
g2
F224.0
sg3
S'62_08'
p1813
sg5
g6
sa(dp1814
g2
F284.5
sg3
S'62_09'
p1815
sg5
g6
sa(dp1816
g2
F505.25
sg3
S'62_10'
p1817
sg5
g6
sa(dp1818
g2
F926.75
sg3
S'62_11'
p1819
sg5
g6
sa(dp1820
g2
F246.25
sg3
S'62_12'
p1821
sg5
g6
sa(dp1822
g2
F316.0
sg3
S'62_13'
p1823
sg5
g6
sa(dp1824
g2
F168.5
sg3
S'62_14'
p1825
sg5
g6
sa(dp1826
g2
F170.0
sg3
S'62_15'
p1827
sg5
g6
sa(dp1828
g2
F157.0
sg3
S'62_16'
p1829
sg5
g6
sa(dp1830
g2
F180.25
sg3
S'62_17'
p1831
sg5
g6
sa(dp1832
g2
F141.25
sg3
S'62_18'
p1833
sg5
g6
sa(dp1834
g2
F164.75
sg3
S'62_19'
p1835
sg5
g6
sa(dp1836
g2
F241.0
sg3
S'62_20'
p1837
sg5
g6
sa(dp1838
g2
F862.25
sg3
S'62_21'
p1839
sg5
g6
sa(dp1840
g2
F264.0
sg3
S'62_22'
p1841
sg5
g6
sa(dp1842
g2
F238.75
sg3
S'62_23'
p1843
sg5
g6
sa(dp1844
g2
F721.5
sg3
S'62_24'
p1845
sg5
g6
sa(dp1846
g2
F331.0
sg3
S'62_25'
p1847
sg5
g6
sa(dp1848
g2
F112.0
sg3
S'63_01'
p1849
sg5
g6
sa(dp1850
g2
F123.25
sg3
S'63_02'
p1851
sg5
g6
sa(dp1852
g2
F111.0
sg3
S'63_03'
p1853
sg5
g6
sa(dp1854
g2
F103.0
sg3
S'63_04'
p1855
sg5
g6
sa(dp1856
g2
F96.75
sg3
S'63_05'
p1857
sg5
g6
sa(dp1858
g2
F132.25
sg3
S'63_06'
p1859
sg5
g6
sa(dp1860
g2
F94.0
sg3
S'63_07'
p1861
sg5
g6
sa(dp1862
g2
F91.0
sg3
S'63_08'
p1863
sg5
g6
sa(dp1864
g2
F113.0
sg3
S'63_09'
p1865
sg5
g6
sa(dp1866
g2
F140.5
sg3
S'63_10'
p1867
sg5
g6
sa(dp1868
g2
F148.25
sg3
S'63_11'
p1869
sg5
g6
sa(dp1870
g2
F126.0
sg3
S'63_12'
p1871
sg5
g6
sa(dp1872
g2
F109.25
sg3
S'63_13'
p1873
sg5
g6
sa(dp1874
g2
F139.75
sg3
S'63_14'
p1875
sg5
g6
sa(dp1876
g2
F103.75
sg3
S'63_15'
p1877
sg5
g6
sa(dp1878
g2
F155.25
sg3
S'63_16'
p1879
sg5
g6
sa(dp1880
g2
F133.5
sg3
S'63_17'
p1881
sg5
g6
sa(dp1882
g2
F118.75
sg3
S'63_18'
p1883
sg5
g6
sa(dp1884
g2
F146.5
sg3
S'63_20'
p1885
sg5
g6
sa(dp1886
g2
F109.25
sg3
S'63_21'
p1887
sg5
g6
sa(dp1888
g2
F131.75
sg3
S'63_22'
p1889
sg5
g6
sa(dp1890
g2
F130.25
sg3
S'63_23'
p1891
sg5
g6
sa(dp1892
g2
F144.5
sg3
S'63_24'
p1893
sg5
g6
sa(dp1894
g2
F153.75
sg3
S'63_25'
p1895
sg5
g6
sa(dp1896
g2
F140.5
sg3
S'63_26'
p1897
sg5
g6
sa(dp1898
g2
F142.25
sg3
S'63_27'
p1899
sg5
g6
sa(dp1900
g2
F129.25
sg3
S'63_28'
p1901
sg5
g6
sa(dp1902
g2
F144.75
sg3
S'63_29'
p1903
sg5
g6
sa(dp1904
g2
F154.0
sg3
S'63_30'
p1905
sg5
g6
sa(dp1906
g2
F178.75
sg3
S'70_01'
p1907
sg5
g53
sa(dp1908
g2
F189.75
sg3
S'70_02'
p1909
sg5
g53
sa(dp1910
g2
F463.25
sg3
S'70_03'
p1911
sg5
g53
sa(dp1912
g2
F417.25
sg3
S'70_04'
p1913
sg5
g53
sa(dp1914
g2
F226.0
sg3
S'70_05'
p1915
sg5
g53
sa(dp1916
g2
F208.75
sg3
S'70_06'
p1917
sg5
g53
sa(dp1918
g2
F213.5
sg3
S'70_08'
p1919
sg5
g53
sa(dp1920
g2
F210.0
sg3
S'70_09'
p1921
sg5
g53
sa(dp1922
g2
F199.75
sg3
S'70_10'
p1923
sg5
g53
sa(dp1924
g2
F178.75
sg3
S'73_01'
p1925
sg5
g6
sa(dp1926
g2
F189.75
sg3
S'73_02'
p1927
sg5
g6
sa(dp1928
g2
F463.25
sg3
S'73_03'
p1929
sg5
g6
sa(dp1930
g2
F417.25
sg3
S'73_04'
p1931
sg5
g6
sa(dp1932
g2
F226.0
sg3
S'73_05'
p1933
sg5
g6
sa(dp1934
g2
F208.75
sg3
S'73_06'
p1935
sg5
g6
sa(dp1936
g2
F213.5
sg3
S'73_08'
p1937
sg5
g6
sa(dp1938
g2
F210.0
sg3
S'73_09'
p1939
sg5
g6
sa(dp1940
g2
F199.75
sg3
S'73_10'
p1941
sg5
g6
sa(dp1942
g2
F94.5
sg3
S'75_01'
p1943
sg5
g53
sa(dp1944
g2
F59.75
sg3
S'75_02'
p1945
sg5
g53
sa(dp1946
g2
F51.75
sg3
S'75_03'
p1947
sg5
g53
sa(dp1948
g2
F72.5
sg3
S'75_04'
p1949
sg5
g53
sa(dp1950
g2
F74.5
sg3
S'75_05'
p1951
sg5
g53
sa(dp1952
g2
F182.25
sg3
S'75_06'
p1953
sg5
g53
sa(dp1954
g2
F279.75
sg3
S'75_07'
p1955
sg5
g53
sa(dp1956
g2
F278.75
sg3
S'75_08'
p1957
sg5
g53
sa(dp1958
g2
F93.0
sg3
S'75_09'
p1959
sg5
g53
sa(dp1960
g2
F68.75
sg3
S'75_10'
p1961
sg5
g53
sa(dp1962
g2
F44.0
sg3
S'75_11'
p1963
sg5
g53
sa(dp1964
g2
F115.5
sg3
S'75_12'
p1965
sg5
g53
sa(dp1966
g2
F93.25
sg3
S'75_13'
p1967
sg5
g53
sa(dp1968
g2
F111.5
sg3
S'75_14'
p1969
sg5
g53
sa(dp1970
g2
F436.25
sg3
S'75_15'
p1971
sg5
g53
sa(dp1972
g2
F85.75
sg3
S'75_16'
p1973
sg5
g53
sa(dp1974
g2
F81.0
sg3
S'75_17'
p1975
sg5
g53
sa(dp1976
g2
F75.75
sg3
S'75_18'
p1977
sg5
g53
sa(dp1978
g2
F192.0
sg3
S'75_19'
p1979
sg5
g53
sa(dp1980
g2
F124.0
sg3
S'75_20'
p1981
sg5
g53
sa(dp1982
g2
F232.5
sg3
S'76_01'
p1983
sg5
g6
sa(dp1984
g2
F291.0
sg3
S'76_02'
p1985
sg5
g6
sa(dp1986
g2
F270.5
sg3
S'76_03'
p1987
sg5
g6
sa(dp1988
g2
F104.25
sg3
S'76_04'
p1989
sg5
g6
sa(dp1990
g2
F216.5
sg3
S'76_05'
p1991
sg5
g6
sa(dp1992
g2
F168.75
sg3
S'76_06'
p1993
sg5
g6
sa(dp1994
g2
F5.0
sg3
S'76_07'
p1995
sg5
g6
sa(dp1996
g2
F375.75
sg3
S'76_08'
p1997
sg5
g6
sa(dp1998
g2
F396.75
sg3
S'76_09'
p1999
sg5
g6
sa(dp2000
g2
F341.25
sg3
S'76_10'
p2001
sg5
g6
sa(dp2002
g2
F128.25
sg3
S'76_11'
p2003
sg5
g6
sa(dp2004
g2
F146.5
sg3
S'79_01'
p2005
sg5
g6
sa(dp2006
g2
F194.0
sg3
S'79_02'
p2007
sg5
g6
sa(dp2008
g2
F210.75
sg3
S'79_03'
p2009
sg5
g6
sa(dp2010
g2
F227.25
sg3
S'79_04'
p2011
sg5
g6
sa(dp2012
g2
F245.0
sg3
S'79_05'
p2013
sg5
g6
sa(dp2014
g2
F147.5
sg3
S'79_06'
p2015
sg5
g6
sa(dp2016
g2
F82.25
sg3
S'79_07'
p2017
sg5
g6
sa(dp2018
g2
F110.5
sg3
S'79_08'
p2019
sg5
g6
sa(dp2020
g2
F209.5
sg3
S'79_09'
p2021
sg5
g6
sa(dp2022
g2
F175.75
sg3
S'79_10'
p2023
sg5
g6
sa(dp2024
g2
F32.5
sg3
S'79_11'
p2025
sg5
g6
sa(dp2026
g2
F256.25
sg3
S'79_12'
p2027
sg5
g6
sa(dp2028
g2
F166.0
sg3
S'79_13'
p2029
sg5
g6
sa(dp2030
g2
F183.25
sg3
S'79_14'
p2031
sg5
g6
sa(dp2032
g2
F218.75
sg3
S'79_15'
p2033
sg5
g6
sa(dp2034
g2
F180.0
sg3
S'79_16'
p2035
sg5
g6
sa(dp2036
g2
F201.0
sg3
S'79_17'
p2037
sg5
g6
sa(dp2038
g2
F201.0
sg3
S'79_18'
p2039
sg5
g6
sa(dp2040
g2
F172.75
sg3
S'79_19'
p2041
sg5
g6
sa(dp2042
g2
F186.75
sg3
S'79_20'
p2043
sg5
g6
sa(dp2044
g2
F204.25
sg3
S'79_21'
p2045
sg5
g6
sa(dp2046
g2
F219.75
sg3
S'79_22'
p2047
sg5
g6
sa(dp2048
g2
F182.5
sg3
S'79_23'
p2049
sg5
g6
sa(dp2050
g2
F186.0
sg3
S'79_24'
p2051
sg5
g6
sa(dp2052
g2
F150.75
sg3
S'79_25'
p2053
sg5
g6
sa(dp2054
g2
F258.0
sg3
S'79_26'
p2055
sg5
g6
sa(dp2056
g2
F220.75
sg3
S'79_27'
p2057
sg5
g6
sa(dp2058
g2
F102.0
sg3
S'79_28'
p2059
sg5
g6
sa(dp2060
g2
F169.5
sg3
S'79_29'
p2061
sg5
g6
sa(dp2062
g2
F200.0
sg3
S'79_30'
p2063
sg5
g6
sa(dp2064
g2
F144.5
sg3
S'79_31'
p2065
sg5
g6
sa(dp2066
g2
F241.0
sg3
S'79_32'
p2067
sg5
g6
sa(dp2068
g2
F145.25
sg3
S'79_33'
p2069
sg5
g6
sa(dp2070
g2
F187.0
sg3
S'79_34'
p2071
sg5
g6
sa(dp2072
g2
F298.5
sg3
S'79_35'
p2073
sg5
g6
sa(dp2074
g2
F129.5
sg3
S'79_36'
p2075
sg5
g6
sa(dp2076
g2
F150.5
sg3
S'79_37'
p2077
sg5
g6
sa(dp2078
g2
F135.25
sg3
S'79_38'
p2079
sg5
g6
sa(dp2080
g2
F202.0
sg3
S'79_39'
p2081
sg5
g6
sa(dp2082
g2
F216.5
sg3
S'79_40'
p2083
sg5
g6
sa(dp2084
g2
F277.0
sg3
S'79_41'
p2085
sg5
g6
sa(dp2086
g2
F198.25
sg3
S'79_42'
p2087
sg5
g6
sa(dp2088
g2
F246.75
sg3
S'79_43'
p2089
sg5
g6
sa(dp2090
g2
F213.5
sg3
S'79_44'
p2091
sg5
g6
sa(dp2092
g2
F215.75
sg3
S'79_45'
p2093
sg5
g6
sa(dp2094
g2
F324.0
sg3
S'79_46'
p2095
sg5
g6
sa(dp2096
g2
F308.5
sg3
S'79_47'
p2097
sg5
g6
sa(dp2098
g2
F315.5
sg3
S'79_48'
p2099
sg5
g6
sa(dp2100
g2
F259.5
sg3
S'79_49'
p2101
sg5
g6
sa(dp2102
g2
F183.5
sg3
S'79_50'
p2103
sg5
g6
sa(dp2104
g2
F213.5
sg3
S'79_51'
p2105
sg5
g6
sa(dp2106
g2
F224.5
sg3
S'79_52'
p2107
sg5
g6
sa(dp2108
g2
F186.5
sg3
S'79_53'
p2109
sg5
g6
sa(dp2110
g2
F291.75
sg3
S'79_54'
p2111
sg5
g6
sa(dp2112
g2
F160.0
sg3
S'79_55'
p2113
sg5
g6
sa(dp2114
g2
F214.75
sg3
S'79_56'
p2115
sg5
g6
sa(dp2116
g2
F241.75
sg3
S'79_57'
p2117
sg5
g6
sa(dp2118
g2
F212.25
sg3
S'79_58'
p2119
sg5
g6
sa(dp2120
g2
F212.5
sg3
S'79_59'
p2121
sg5
g6
sa(dp2122
g2
F200.25
sg3
S'79_60'
p2123
sg5
g6
sa(dp2124
g2
F272.75
sg3
S'79_61'
p2125
sg5
g6
sa(dp2126
g2
F211.25
sg3
S'79_62'
p2127
sg5
g6
sa(dp2128
g2
F273.0
sg3
S'79_63'
p2129
sg5
g6
sa(dp2130
g2
F269.5
sg3
S'79_64'
p2131
sg5
g6
sa(dp2132
g2
F163.25
sg3
S'79_65'
p2133
sg5
g6
sa(dp2134
g2
F182.0
sg3
S'79_66'
p2135
sg5
g6
sa(dp2136
g2
F315.5
sg3
S'79_67'
p2137
sg5
g6
sa(dp2138
g2
F295.0
sg3
S'79_68'
p2139
sg5
g6
sa(dp2140
g2
F204.25
sg3
S'79_69'
p2141
sg5
g6
sa(dp2142
g2
F190.75
sg3
S'79_70'
p2143
sg5
g6
sa(dp2144
g2
F269.75
sg3
S'79_71'
p2145
sg5
g6
sa(dp2146
g2
F238.25
sg3
S'79_72'
p2147
sg5
g6
sa(dp2148
g2
F221.75
sg3
S'79_73'
p2149
sg5
g6
sa(dp2150
g2
F231.25
sg3
S'79_74'
p2151
sg5
g6
sa(dp2152
g2
F322.5
sg3
S'79_75'
p2153
sg5
g6
sa(dp2154
g2
F313.5
sg3
S'79_76'
p2155
sg5
g6
sa(dp2156
g2
F286.25
sg3
S'79_77'
p2157
sg5
g6
sa(dp2158
g2
F323.0
sg3
S'79_78'
p2159
sg5
g6
sa(dp2160
g2
F210.25
sg3
S'79_79'
p2161
sg5
g6
sa(dp2162
g2
F246.5
sg3
S'79_80'
p2163
sg5
g6
sa(dp2164
g2
F235.0
sg3
S'79_81'
p2165
sg5
g6
sa(dp2166
g2
F191.75
sg3
S'79_82'
p2167
sg5
g6
sa(dp2168
g2
F293.0
sg3
S'79_83'
p2169
sg5
g6
sa(dp2170
g2
F219.0
sg3
S'79_84'
p2171
sg5
g6
sa(dp2172
g2
F262.25
sg3
S'79_85'
p2173
sg5
g6
sa(dp2174
g2
F170.25
sg3
S'79_86'
p2175
sg5
g6
sa(dp2176
g2
F197.75
sg3
S'79_87'
p2177
sg5
g6
sa(dp2178
g2
F226.75
sg3
S'79_88'
p2179
sg5
g6
sa(dp2180
g2
F221.25
sg3
S'79_89'
p2181
sg5
g6
sa(dp2182
g2
F339.5
sg3
S'79_90'
p2183
sg5
g6
sa(dp2184
g2
F124.5
sg3
S'79_91'
p2185
sg5
g6
sa(dp2186
g2
F159.5
sg3
S'79_92'
p2187
sg5
g6
sa(dp2188
g2
F284.5
sg3
S'79_93'
p2189
sg5
g6
sa(dp2190
g2
F233.75
sg3
S'79_94'
p2191
sg5
g6
sa(dp2192
g2
F236.25
sg3
S'79_95'
p2193
sg5
g6
sa(dp2194
g2
F139.75
sg3
S'79_96'
p2195
sg5
g6
sa(dp2196
g2
F212.25
sg3
S'80_01'
p2197
sg5
g6
sa(dp2198
g2
F176.0
sg3
S'80_02'
p2199
sg5
g6
sa(dp2200
g2
F165.0
sg3
S'80_03'
p2201
sg5
g6
sa(dp2202
g2
F275.5
sg3
S'80_04'
p2203
sg5
g6
sa(dp2204
g2
F290.0
sg3
S'80_05'
p2205
sg5
g6
sa(dp2206
g2
F240.5
sg3
S'80_06'
p2207
sg5
g6
sa(dp2208
g2
F389.5
sg3
S'80_07'
p2209
sg5
g6
sa(dp2210
g2
F219.75
sg3
S'80_08'
p2211
sg5
g6
sa(dp2212
g2
F379.25
sg3
S'80_09'
p2213
sg5
g6
sa(dp2214
g2
F193.25
sg3
S'80_10'
p2215
sg5
g6
sa(dp2216
g2
F175.75
sg3
S'80_11'
p2217
sg5
g6
sa(dp2218
g2
F402.75
sg3
S'80_12'
p2219
sg5
g6
sa(dp2220
g2
F253.5
sg3
S'80_13'
p2221
sg5
g6
sa(dp2222
g2
F433.75
sg3
S'80_14'
p2223
sg5
g6
sa(dp2224
g2
F309.0
sg3
S'80_15'
p2225
sg5
g6
sa(dp2226
g2
F314.75
sg3
S'80_16'
p2227
sg5
g6
sa(dp2228
g2
F359.5
sg3
S'80_17'
p2229
sg5
g6
sa(dp2230
g2
F377.75
sg3
S'80_18'
p2231
sg5
g6
sa(dp2232
g2
F456.25
sg3
S'80_19'
p2233
sg5
g6
sa(dp2234
g2
F505.0
sg3
S'80_20'
p2235
sg5
g6
sa(dp2236
g2
F349.75
sg3
S'80_21'
p2237
sg5
g6
sa(dp2238
g2
F263.5
sg3
S'80_22'
p2239
sg5
g6
sa(dp2240
g2
F255.5
sg3
S'80_23'
p2241
sg5
g6
sa(dp2242
g2
F445.5
sg3
S'80_24'
p2243
sg5
g6
sa(dp2244
g2
F276.75
sg3
S'80_25'
p2245
sg5
g6
sa(dp2246
g2
F308.25
sg3
S'80_26'
p2247
sg5
g6
sa(dp2248
g2
F271.5
sg3
S'80_27'
p2249
sg5
g6
sa(dp2250
g2
F305.25
sg3
S'80_28'
p2251
sg5
g6
sa(dp2252
g2
F281.5
sg3
S'80_29'
p2253
sg5
g6
sa(dp2254
g2
F647.5
sg3
S'80_30'
p2255
sg5
g6
sa(dp2256
g2
F390.0
sg3
S'80_31'
p2257
sg5
g6
sa(dp2258
g2
F403.5
sg3
S'80_32'
p2259
sg5
g6
sa(dp2260
g2
F484.25
sg3
S'80_33'
p2261
sg5
g6
sa(dp2262
g2
F522.0
sg3
S'80_34'
p2263
sg5
g6
sa(dp2264
g2
F485.75
sg3
S'80_35'
p2265
sg5
g6
sa(dp2266
g2
F422.25
sg3
S'80_36'
p2267
sg5
g6
sa(dp2268
g2
F672.75
sg3
S'80_37'
p2269
sg5
g6
sa(dp2270
g2
F616.75
sg3
S'80_38'
p2271
sg5
g6
sa(dp2272
g2
F456.25
sg3
S'80_39'
p2273
sg5
g6
sa(dp2274
g2
F228.75
sg3
S'80_40'
p2275
sg5
g6
sa(dp2276
g2
F266.25
sg3
S'80_41'
p2277
sg5
g6
sa(dp2278
g2
F309.0
sg3
S'80_42'
p2279
sg5
g6
sa(dp2280
g2
F245.0
sg3
S'80_43'
p2281
sg5
g6
sa(dp2282
g2
F233.0
sg3
S'80_44'
p2283
sg5
g6
sa(dp2284
g2
F401.25
sg3
S'80_45'
p2285
sg5
g6
sa(dp2286
g2
F397.75
sg3
S'80_46'
p2287
sg5
g6
sa(dp2288
g2
F251.0
sg3
S'80_47'
p2289
sg5
g6
sa(dp2290
g2
F287.5
sg3
S'80_48'
p2291
sg5
g6
sa(dp2292
g2
F466.75
sg3
S'80_49'
p2293
sg5
g6
sa(dp2294
g2
F313.0
sg3
S'80_50'
p2295
sg5
g6
sa(dp2296
g2
F375.25
sg3
S'80_51'
p2297
sg5
g6
sa(dp2298
g2
F392.75
sg3
S'80_52'
p2299
sg5
g6
sa(dp2300
g2
F451.5
sg3
S'80_53'
p2301
sg5
g6
sa(dp2302
g2
F406.75
sg3
S'80_54'
p2303
sg5
g6
sa(dp2304
g2
F343.75
sg3
S'80_55'
p2305
sg5
g6
sa(dp2306
g2
F172.5
sg3
S'80_56'
p2307
sg5
g6
sa(dp2308
g2
F405.0
sg3
S'80_57'
p2309
sg5
g6
sa(dp2310
g2
F588.0
sg3
S'80_58'
p2311
sg5
g6
sa(dp2312
g2
F384.5
sg3
S'80_59'
p2313
sg5
g6
sa(dp2314
g2
F514.75
sg3
S'80_60'
p2315
sg5
g6
sa(dp2316
g2
F264.25
sg3
S'80_61'
p2317
sg5
g6
sa(dp2318
g2
F572.25
sg3
S'80_62'
p2319
sg5
g6
sa(dp2320
g2
F568.25
sg3
S'80_63'
p2321
sg5
g6
sa(dp2322
g2
F608.75
sg3
S'80_64'
p2323
sg5
g6
sa(dp2324
g2
F454.0
sg3
S'80_65'
p2325
sg5
g6
sa(dp2326
g2
F517.75
sg3
S'80_66'
p2327
sg5
g6
sa(dp2328
g2
F539.0
sg3
S'80_67'
p2329
sg5
g6
sa(dp2330
g2
F693.75
sg3
S'80_68'
p2331
sg5
g6
sa(dp2332
g2
F1070.25
sg3
S'80_69'
p2333
sg5
g6
sa(dp2334
g2
F449.75
sg3
S'80_70'
p2335
sg5
g6
sa(dp2336
g2
F271.5
sg3
S'80_71'
p2337
sg5
g6
sa(dp2338
g2
F271.75
sg3
S'80_72'
p2339
sg5
g6
sa(dp2340
g2
F197.5
sg3
S'80_73'
p2341
sg5
g6
sa(dp2342
g2
F249.5
sg3
S'85_01'
p2343
sg5
g6
sa(dp2344
g2
F202.5
sg3
S'85_02'
p2345
sg5
g6
sa(dp2346
g2
F811.25
sg3
S'85_03'
p2347
sg5
g6
sa(dp2348
g2
F638.75
sg3
S'85_04'
p2349
sg5
g6
sa(dp2350
g2
F408.5
sg3
S'85_05'
p2351
sg5
g6
sa(dp2352
g2
F237.5
sg3
S'85_06'
p2353
sg5
g6
sa(dp2354
g2
F239.75
sg3
S'85_07'
p2355
sg5
g6
sa(dp2356
g2
F254.0
sg3
S'85_08'
p2357
sg5
g6
sa(dp2358
g2
F63.25
sg3
S'85_09'
p2359
sg5
g6
sa(dp2360
g2
F193.5
sg3
S'85_10'
p2361
sg5
g6
sa(dp2362
g2
F450.5
sg3
S'85_11'
p2363
sg5
g6
sa(dp2364
g2
F1124.75
sg3
S'85_12'
p2365
sg5
g6
sa(dp2366
g2
F361.5
sg3
S'85_13'
p2367
sg5
g6
sa(dp2368
g2
F742.25
sg3
S'85_14'
p2369
sg5
g6
sa(dp2370
g2
F331.25
sg3
S'85_15'
p2371
sg5
g6
sa(dp2372
g2
F50.5
sg3
S'88_01'
p2373
sg5
g6
sa(dp2374
g2
F832.0
sg3
S'88_02'
p2375
sg5
g6
sa(dp2376
g2
F88.5
sg3
S'88_03'
p2377
sg5
g6
sa(dp2378
g2
F310.0
sg3
S'88_04'
p2379
sg5
g6
sa(dp2380
g2
F37.25
sg3
S'88_05'
p2381
sg5
g6
sa(dp2382
g2
F57.5
sg3
S'88_06'
p2383
sg5
g6
sa(dp2384
g2
F39.0
sg3
S'88_07'
p2385
sg5
g6
sa(dp2386
g2
F72.25
sg3
S'88_08'
p2387
sg5
g6
sa(dp2388
g2
F94.0
sg3
S'88_09'
p2389
sg5
g6
sa(dp2390
g2
F116.75
sg3
S'88_10'
p2391
sg5
g6
sa(dp2392
g2
F506.75
sg3
S'88_11'
p2393
sg5
g6
sa(dp2394
g2
F583.0
sg3
S'89_01'
p2395
sg5
g6
sa(dp2396
g2
F90.0
sg3
S'89_02'
p2397
sg5
g6
sa(dp2398
g2
F98.75
sg3
S'89_03'
p2399
sg5
g6
sa(dp2400
g2
F1115.5
sg3
S'89_05'
p2401
sg5
g6
sa(dp2402
g2
F1068.5
sg3
S'89_06'
p2403
sg5
g6
sa(dp2404
g2
F684.25
sg3
S'91_01'
p2405
sg5
g6
sa(dp2406
g2
F437.0
sg3
S'91_02'
p2407
sg5
g6
sa(dp2408
g2
F466.25
sg3
S'91_03'
p2409
sg5
g6
sa(dp2410
g2
F540.5
sg3
S'91_04'
p2411
sg5
g6
sa(dp2412
g2
F675.0
sg3
S'91_05'
p2413
sg5
g6
sa(dp2414
g2
F34.0
sg3
S'91_06'
p2415
sg5
g6
sa(dp2416
g2
F645.5
sg3
S'91_07'
p2417
sg5
g6
sa(dp2418
g2
F993.0
sg3
S'91_08'
p2419
sg5
g6
sa(dp2420
g2
F1350.5
sg3
S'91_09'
p2421
sg5
g6
sa(dp2422
g2
F793.75
sg3
S'91_10'
p2423
sg5
g6
sa(dp2424
g2
F465.75
sg3
S'91_11'
p2425
sg5
g6
sa(dp2426
g2
F555.5
sg3
S'91_12'
p2427
sg5
g6
sa(dp2428
g2
F740.0
sg3
S'91_13'
p2429
sg5
g6
sa(dp2430
g2
F692.25
sg3
S'91_14'
p2431
sg5
g6
sa(dp2432
g2
F772.5
sg3
S'91_15'
p2433
sg5
g6
sa(dp2434
g2
F473.0
sg3
S'91_16'
p2435
sg5
g6
sa(dp2436
g2
F380.0
sg3
S'91_17'
p2437
sg5
g6
sa(dp2438
g2
F840.75
sg3
S'91_18'
p2439
sg5
g6
sa(dp2440
g2
F471.25
sg3
S'91_19'
p2441
sg5
g6
sa(dp2442
g2
F693.5
sg3
S'91_20'
p2443
sg5
g6
sa(dp2444
g2
F967.5
sg3
S'91_21'
p2445
sg5
g6
sa(dp2446
g2
F526.5
sg3
S'91_22'
p2447
sg5
g6
sa(dp2448
g2
F667.0
sg3
S'91_23'
p2449
sg5
g6
sa(dp2450
g2
F951.0
sg3
S'91_24'
p2451
sg5
g6
sa(dp2452
g2
F784.25
sg3
S'91_25'
p2453
sg5
g6
sa(dp2454
g2
F520.5
sg3
S'91_26'
p2455
sg5
g6
sa(dp2456
g2
F723.5
sg3
S'91_27'
p2457
sg5
g6
sa(dp2458
g2
F826.75
sg3
S'91_28'
p2459
sg5
g6
sa(dp2460
g2
F545.25
sg3
S'91_29'
p2461
sg5
g6
sa(dp2462
g2
F784.75
sg3
S'91_30'
p2463
sg5
g6
sa(dp2464
g2
F498.0
sg3
S'91_31'
p2465
sg5
g6
sa(dp2466
g2
F931.0
sg3
S'91_32'
p2467
sg5
g6
sa(dp2468
g2
F674.5
sg3
S'91_33'
p2469
sg5
g6
sa(dp2470
g2
F552.0
sg3
S'91_34'
p2471
sg5
g6
sa(dp2472
g2
F763.0
sg3
S'91_35'
p2473
sg5
g6
sa(dp2474
g2
F221.75
sg3
S'91_36'
p2475
sg5
g6
sa(dp2476
g2
F78.75
sg3
S'91_37'
p2477
sg5
g6
sa(dp2478
g2
F114.5
sg3
S'91_38'
p2479
sg5
g6
sa(dp2480
g2
F111.5
sg3
S'91_39'
p2481
sg5
g6
sa(dp2482
g2
F117.25
sg3
S'91_40'
p2483
sg5
g6
sa(dp2484
g2
F125.75
sg3
S'91_41'
p2485
sg5
g6
sa(dp2486
g2
F140.0
sg3
S'91_42'
p2487
sg5
g6
sa(dp2488
g2
F56.75
sg3
S'91_43'
p2489
sg5
g6
sa(dp2490
g2
F84.5
sg3
S'91_44'
p2491
sg5
g6
sa(dp2492
g2
F92.75
sg3
S'91_45'
p2493
sg5
g6
sa(dp2494
g2
F80.5
sg3
S'91_46'
p2495
sg5
g6
sa(dp2496
g2
F117.25
sg3
S'91_47'
p2497
sg5
g6
sa(dp2498
g2
F110.0
sg3
S'91_48'
p2499
sg5
g6
sa(dp2500
g2
F120.5
sg3
S'91_49'
p2501
sg5
g6
sa(dp2502
g2
F165.75
sg3
S'91_50'
p2503
sg5
g6
sa(dp2504
g2
F121.0
sg3
S'91_51'
p2505
sg5
g6
sa(dp2506
g2
F127.25
sg3
S'91_52'
p2507
sg5
g6
sa(dp2508
g2
F138.75
sg3
S'91_53'
p2509
sg5
g6
sa(dp2510
g2
F169.5
sg3
S'91_54'
p2511
sg5
g6
sa(dp2512
g2
F116.75
sg3
S'91_55'
p2513
sg5
g6
sa(dp2514
g2
F125.0
sg3
S'91_56'
p2515
sg5
g6
sa(dp2516
g2
F294.25
sg3
S'91_57'
p2517
sg5
g6
sa(dp2518
g2
F123.25
sg3
S'91_58'
p2519
sg5
g6
sa(dp2520
g2
F78.0
sg3
S'91_59'
p2521
sg5
g6
sa(dp2522
g2
F91.75
sg3
S'91_60'
p2523
sg5
g6
sa(dp2524
g2
F90.5
sg3
S'91_61'
p2525
sg5
g6
sa(dp2526
g2
F462.25
sg3
S'91_62'
p2527
sg5
g6
sa(dp2528
g2
F1825.0
sg3
S'h36m_S11_Directions'
p2529
sg5
S'all'
p2530
sa(dp2531
g2
F1552.25
sg3
S'h36m_S11_Directions 1'
p2532
sg5
g2530
sa(dp2533
g2
F2684.0
sg3
S'h36m_S11_Discussion 1'
p2534
sg5
g2530
sa(dp2535
g2
F2198.25
sg3
S'h36m_S11_Discussion 2'
p2536
sg5
g2530
sa(dp2537
g2
F2203.5
sg3
S'h36m_S11_Eating'
p2538
sg5
g2530
sa(dp2539
g2
F2275.0
sg3
S'h36m_S11_Eating 1'
p2540
sg5
g2530
sa(dp2541
g2
F1808.5
sg3
S'h36m_S11_Greeting'
p2542
sg5
g2530
sa(dp2543
g2
F1695.25
sg3
S'h36m_S11_Greeting 2'
p2544
sg5
g2530
sa(dp2545
g2
F3492.0
sg3
S'h36m_S11_Phoning 2'
p2546
sg5
g2530
sa(dp2547
g2
F3390.25
sg3
S'h36m_S11_Phoning 3'
p2548
sg5
g2530
sa(dp2549
g2
F1990.75
sg3
S'h36m_S11_Photo'
p2550
sg5
g2530
sa(dp2551
g2
F1545.25
sg3
S'h36m_S11_Photo 1'
p2552
sg5
g2530
sa(dp2553
g2
F1407.0
sg3
S'h36m_S11_Posing'
p2554
sg5
g2530
sa(dp2555
g2
F1481.0
sg3
S'h36m_S11_Posing 1'
p2556
sg5
g2530
sa(dp2557
g2
F1040.5
sg3
S'h36m_S11_Purchases'
p2558
sg5
g2530
sa(dp2559
g2
F1026.0
sg3
S'h36m_S11_Purchases 1'
p2560
sg5
g2530
sa(dp2561
g2
F2179.25
sg3
S'h36m_S11_Sitting'
p2562
sg5
g2530
sa(dp2563
g2
F1857.75
sg3
S'h36m_S11_Sitting 1'
p2564
sg5
g2530
sa(dp2565
g2
F1841.0
sg3
S'h36m_S11_SittingDown'
p2566
sg5
g2530
sa(dp2567
g2
F2004.25
sg3
S'h36m_S11_SittingDown 1'
p2568
sg5
g2530
sa(dp2569
g2
F2410.0
sg3
S'h36m_S11_Smoking'
p2570
sg5
g2530
sa(dp2571
g2
F2767.25
sg3
S'h36m_S11_Smoking 2'
p2572
sg5
g2530
sa(dp2573
g2
F2262.5
sg3
S'h36m_S11_Waiting'
p2574
sg5
g2530
sa(dp2575
g2
F2280.0
sg3
S'h36m_S11_Waiting 1'
p2576
sg5
g2530
sa(dp2577
g2
F1435.25
sg3
S'h36m_S11_WalkDog'
p2578
sg5
g2530
sa(dp2579
g2
F1187.0
sg3
S'h36m_S11_WalkDog 1'
p2580
sg5
g2530
sa(dp2581
g2
F1360.5
sg3
S'h36m_S11_WalkTogether'
p2582
sg5
g2530
sa(dp2583
g2
F1793.5
sg3
S'h36m_S11_WalkTogether 1'
p2584
sg5
g2530
sa(dp2585
g2
F1621.25
sg3
S'h36m_S11_Walking'
p2586
sg5
g2530
sa(dp2587
g2
F1637.75
sg3
S'h36m_S11_Walking 1'
p2588
sg5
g2530
sa(dp2589
g2
F1612.0
sg3
S'h36m_S1_Directions'
p2590
sg5
g2530
sa(dp2591
g2
F1383.75
sg3
S'h36m_S1_Directions 1'
p2592
sg5
g2530
sa(dp2593
g2
F3852.75
sg3
S'h36m_S1_Discussion'
p2594
sg5
g2530
sa(dp2595
g2
F3805.25
sg3
S'h36m_S1_Discussion 1'
p2596
sg5
g2530
sa(dp2597
g2
F2721.25
sg3
S'h36m_S1_Eating'
p2598
sg5
g2530
sa(dp2599
g2
F2357.5
sg3
S'h36m_S1_Eating 2'
p2600
sg5
g2530
sa(dp2601
g2
F1149.5
sg3
S'h36m_S1_Greeting'
p2602
sg5
g2530
sa(dp2603
g2
F1265.5
sg3
S'h36m_S1_Greeting 1'
p2604
sg5
g2530
sa(dp2605
g2
F2266.5
sg3
S'h36m_S1_Phoning'
p2606
sg5
g2530
sa(dp2607
g2
F2636.5
sg3
S'h36m_S1_Phoning 1'
p2608
sg5
g2530
sa(dp2609
g2
F992.75
sg3
S'h36m_S1_Posing'
p2610
sg5
g2530
sa(dp2611
g2
F1167.5
sg3
S'h36m_S1_Posing 1'
p2612
sg5
g2530
sa(dp2613
g2
F1158.75
sg3
S'h36m_S1_Purchases'
p2614
sg5
g2530
sa(dp2615
g2
F1064.5
sg3
S'h36m_S1_Purchases 1'
p2616
sg5
g2530
sa(dp2617
g2
F3304.5
sg3
S'h36m_S1_Sitting 1'
p2618
sg5
g2530
sa(dp2619
g2
F2612.25
sg3
S'h36m_S1_Sitting 2'
p2620
sg5
g2530
sa(dp2621
g2
F2742.25
sg3
S'h36m_S1_SittingDown'
p2622
sg5
g2530
sa(dp2623
g2
F3023.75
sg3
S'h36m_S1_SittingDown 2'
p2624
sg5
g2530
sa(dp2625
g2
F2478.0
sg3
S'h36m_S1_Smoking'
p2626
sg5
g2530
sa(dp2627
g2
F2611.25
sg3
S'h36m_S1_Smoking 1'
p2628
sg5
g2530
sa(dp2629
g2
F1036.75
sg3
S'h36m_S1_TakingPhoto'
p2630
sg5
g2530
sa(dp2631
g2
F1074.5
sg3
S'h36m_S1_TakingPhoto 1'
p2632
sg5
g2530
sa(dp2633
g2
F1792.5
sg3
S'h36m_S1_Waiting'
p2634
sg5
g2530
sa(dp2635
g2
F1440.5
sg3
S'h36m_S1_Waiting 1'
p2636
sg5
g2530
sa(dp2637
g2
F1231.0
sg3
S'h36m_S1_WalkTogether'
p2638
sg5
g2530
sa(dp2639
g2
F1275.25
sg3
S'h36m_S1_WalkTogether 1'
p2640
sg5
g2530
sa(dp2641
g2
F3134.75
sg3
S'h36m_S1_Walking'
p2642
sg5
g2530
sa(dp2643
g2
F3476.5
sg3
S'h36m_S1_Walking 1'
p2644
sg5
g2530
sa(dp2645
g2
F1777.5
sg3
S'h36m_S1_WalkingDog'
p2646
sg5
g2530
sa(dp2647
g2
F1662.0
sg3
S'h36m_S1_WalkingDog 1'
p2648
sg5
g2530
sa(dp2649
g2
F4973.25
sg3
S'h36m_S5_Directions 1'
p2650
sg5
g2530
sa(dp2651
g2
F2067.75
sg3
S'h36m_S5_Directions 2'
p2652
sg5
g2530
sa(dp2653
g2
F6090.25
sg3
S'h36m_S5_Discussion 2'
p2654
sg5
g2530
sa(dp2655
g2
F5935.25
sg3
S'h36m_S5_Discussion 3'
p2656
sg5
g2530
sa(dp2657
g2
F2331.5
sg3
S'h36m_S5_Eating'
p2658
sg5
g2530
sa(dp2659
g2
F3276.75
sg3
S'h36m_S5_Eating 1'
p2660
sg5
g2530
sa(dp2661
g2
F1474.25
sg3
S'h36m_S5_Greeting 1'
p2662
sg5
g2530
sa(dp2663
g2
F3199.5
sg3
S'h36m_S5_Greeting 2'
p2664
sg5
g2530
sa(dp2665
g2
F2085.0
sg3
S'h36m_S5_Phoning'
p2666
sg5
g2530
sa(dp2667
g2
F3277.0
sg3
S'h36m_S5_Phoning 1'
p2668
sg5
g2530
sa(dp2669
g2
F3325.5
sg3
S'h36m_S5_Photo'
p2670
sg5
g2530
sa(dp2671
g2
F2782.25
sg3
S'h36m_S5_Photo 2'
p2672
sg5
g2530
sa(dp2673
g2
F1885.0
sg3
S'h36m_S5_Posing'
p2674
sg5
g2530
sa(dp2675
g2
F2245.0
sg3
S'h36m_S5_Posing 1'
p2676
sg5
g2530
sa(dp2677
g2
F3124.75
sg3
S'h36m_S5_Purchases'
p2678
sg5
g2530
sa(dp2679
g2
F2479.0
sg3
S'h36m_S5_Purchases 1'
p2680
sg5
g2530
sa(dp2681
g2
F3878.75
sg3
S'h36m_S5_Sitting'
p2682
sg5
g2530
sa(dp2683
g2
F3937.0
sg3
S'h36m_S5_Sitting 1'
p2684
sg5
g2530
sa(dp2685
g2
F5203.0
sg3
S'h36m_S5_SittingDown'
p2686
sg5
g2530
sa(dp2687
g2
F3926.25
sg3
S'h36m_S5_SittingDown 1'
p2688
sg5
g2530
sa(dp2689
g2
F3421.25
sg3
S'h36m_S5_Smoking'
p2690
sg5
g2530
sa(dp2691
g2
F3201.25
sg3
S'h36m_S5_Smoking 1'
p2692
sg5
g2530
sa(dp2693
g2
F4517.75
sg3
S'h36m_S5_Waiting 1'
p2694
sg5
g2530
sa(dp2695
g2
F4856.25
sg3
S'h36m_S5_Waiting 2'
p2696
sg5
g2530
sa(dp2697
g2
F2135.0
sg3
S'h36m_S5_WalkDog'
p2698
sg5
g2530
sa(dp2699
g2
F1937.5
sg3
S'h36m_S5_WalkDog 1'
p2700
sg5
g2530
sa(dp2701
g2
F2984.75
sg3
S'h36m_S5_WalkTogether'
p2702
sg5
g2530
sa(dp2703
g2
F3016.25
sg3
S'h36m_S5_WalkTogether 1'
p2704
sg5
g2530
sa(dp2705
g2
F2521.75
sg3
S'h36m_S5_Walking'
p2706
sg5
g2530
sa(dp2707
g2
F3000.75
sg3
S'h36m_S5_Walking 1'
p2708
sg5
g2530
sa(dp2709
g2
F2819.0
sg3
S'h36m_S6_Directions'
p2710
sg5
g2530
sa(dp2711
g2
F2843.75
sg3
S'h36m_S6_Directions 1'
p2712
sg5
g2530
sa(dp2713
g2
F2415.75
sg3
S'h36m_S6_Discussion'
p2714
sg5
g2530
sa(dp2715
g2
F2720.5
sg3
S'h36m_S6_Discussion 1'
p2716
sg5
g2530
sa(dp2717
g2
F2010.25
sg3
S'h36m_S6_Eating 1'
p2718
sg5
g2530
sa(dp2719
g2
F2226.5
sg3
S'h36m_S6_Eating 2'
p2720
sg5
g2530
sa(dp2721
g2
F1621.25
sg3
S'h36m_S6_Greeting'
p2722
sg5
g2530
sa(dp2723
g2
F1980.0
sg3
S'h36m_S6_Greeting 1'
p2724
sg5
g2530
sa(dp2725
g2
F2086.0
sg3
S'h36m_S6_Phoning'
p2726
sg5
g2530
sa(dp2727
g2
F2379.0
sg3
S'h36m_S6_Phoning 1'
p2728
sg5
g2530
sa(dp2729
g2
F1672.0
sg3
S'h36m_S6_Photo'
p2730
sg5
g2530
sa(dp2731
g2
F1775.0
sg3
S'h36m_S6_Photo 1'
p2732
sg5
g2530
sa(dp2733
g2
F1161.5
sg3
S'h36m_S6_Posing'
p2734
sg5
g2530
sa(dp2735
g2
F1159.5
sg3
S'h36m_S6_Posing 2'
p2736
sg5
g2530
sa(dp2737
g2
F1382.75
sg3
S'h36m_S6_Purchases'
p2738
sg5
g2530
sa(dp2739
g2
F1332.75
sg3
S'h36m_S6_Purchases 1'
p2740
sg5
g2530
sa(dp2741
g2
F1817.5
sg3
S'h36m_S6_Sitting 1'
p2742
sg5
g2530
sa(dp2743
g2
F1998.0
sg3
S'h36m_S6_Sitting 2'
p2744
sg5
g2530
sa(dp2745
g2
F1594.5
sg3
S'h36m_S6_SittingDown'
p2746
sg5
g2530
sa(dp2747
g2
F1873.25
sg3
S'h36m_S6_SittingDown 1'
p2748
sg5
g2530
sa(dp2749
g2
F3173.0
sg3
S'h36m_S6_Smoking'
p2750
sg5
g2530
sa(dp2751
g2
F2899.75
sg3
S'h36m_S6_Smoking 1'
p2752
sg5
g2530
sa(dp2753
g2
F2054.75
sg3
S'h36m_S6_Waiting'
p2754
sg5
g2530
sa(dp2755
g2
F2305.75
sg3
S'h36m_S6_Waiting 3'
p2756
sg5
g2530
sa(dp2757
g2
F1594.5
sg3
S'h36m_S6_WalkDog'
p2758
sg5
g2530
sa(dp2759
g2
F1996.75
sg3
S'h36m_S6_WalkDog 1'
p2760
sg5
g2530
sa(dp2761
g2
F1590.25
sg3
S'h36m_S6_WalkTogether'
p2762
sg5
g2530
sa(dp2763
g2
F1629.25
sg3
S'h36m_S6_WalkTogether 1'
p2764
sg5
g2530
sa(dp2765
g2
F3614.0
sg3
S'h36m_S6_Walking'
p2766
sg5
g2530
sa(dp2767
g2
F2750.0
sg3
S'h36m_S6_Walking 1'
p2768
sg5
g2530
sa(dp2769
g2
F2949.25
sg3
S'h36m_S7_Directions'
p2770
sg5
g2530
sa(dp2771
g2
F2549.0
sg3
S'h36m_S7_Directions 1'
p2772
sg5
g2530
sa(dp2773
g2
F5470.75
sg3
S'h36m_S7_Discussion'
p2774
sg5
g2530
sa(dp2775
g2
F5415.5
sg3
S'h36m_S7_Discussion 1'
p2776
sg5
g2530
sa(dp2777
g2
F3171.75
sg3
S'h36m_S7_Eating'
p2778
sg5
g2530
sa(dp2779
g2
F3763.75
sg3
S'h36m_S7_Eating 1'
p2780
sg5
g2530
sa(dp2781
g2
F2161.75
sg3
S'h36m_S7_Greeting'
p2782
sg5
g2530
sa(dp2783
g2
F2215.25
sg3
S'h36m_S7_Greeting 1'
p2784
sg5
g2530
sa(dp2785
g2
F3586.25
sg3
S'h36m_S7_Phoning'
p2786
sg5
g2530
sa(dp2787
g2
F4354.25
sg3
S'h36m_S7_Phoning 2'
p2788
sg5
g2530
sa(dp2789
g2
F2155.25
sg3
S'h36m_S7_Photo'
p2790
sg5
g2530
sa(dp2791
g2
F1877.5
sg3
S'h36m_S7_Photo 1'
p2792
sg5
g2530
sa(dp2793
g2
F2920.25
sg3
S'h36m_S7_Posing'
p2794
sg5
g2530
sa(dp2795
g2
F2341.0
sg3
S'h36m_S7_Posing 1'
p2796
sg5
g2530
sa(dp2797
g2
F1527.0
sg3
S'h36m_S7_Purchases'
p2798
sg5
g2530
sa(dp2799
g2
F1237.0
sg3
S'h36m_S7_Purchases 1'
p2800
sg5
g2530
sa(dp2801
g2
F2826.25
sg3
S'h36m_S7_Sitting'
p2802
sg5
g2530
sa(dp2803
g2
F4533.5
sg3
S'h36m_S7_Sitting 1'
p2804
sg5
g2530
sa(dp2805
g2
F4549.75
sg3
S'h36m_S7_SittingDown'
p2806
sg5
g2530
sa(dp2807
g2
F6343.25
sg3
S'h36m_S7_SittingDown 1'
p2808
sg5
g2530
sa(dp2809
g2
F4870.75
sg3
S'h36m_S7_Smoking'
p2810
sg5
g2530
sa(dp2811
g2
F4395.25
sg3
S'h36m_S7_Smoking 1'
p2812
sg5
g2530
sa(dp2813
g2
F4201.75
sg3
S'h36m_S7_Waiting 1'
p2814
sg5
g2530
sa(dp2815
g2
F4332.75
sg3
S'h36m_S7_Waiting 2'
p2816
sg5
g2530
sa(dp2817
g2
F2732.5
sg3
S'h36m_S7_WalkDog'
p2818
sg5
g2530
sa(dp2819
g2
F2641.5
sg3
S'h36m_S7_WalkDog 1'
p2820
sg5
g2530
sa(dp2821
g2
F2871.0
sg3
S'h36m_S7_WalkTogether'
p2822
sg5
g2530
sa(dp2823
g2
F2379.75
sg3
S'h36m_S7_WalkTogether 1'
p2824
sg5
g2530
sa(dp2825
g2
F3636.0
sg3
S'h36m_S7_Walking 1'
p2826
sg5
g2530
sa(dp2827
g2
F3623.75
sg3
S'h36m_S7_Walking 2'
p2828
sg5
g2530
sa(dp2829
g2
F2028.5
sg3
S'h36m_S8_Directions'
p2830
sg5
g2530
sa(dp2831
g2
F2011.0
sg3
S'h36m_S8_Directions 1'
p2832
sg5
g2530
sa(dp2833
g2
F2064.25
sg3
S'h36m_S8_Discussion'
p2834
sg5
g2530
sa(dp2835
g2
F1931.75
sg3
S'h36m_S8_Discussion 1'
p2836
sg5
g2530
sa(dp2837
g2
F2694.5
sg3
S'h36m_S8_Eating'
p2838
sg5
g2530
sa(dp2839
g2
F2807.25
sg3
S'h36m_S8_Eating 1'
p2840
sg5
g2530
sa(dp2841
g2
F1447.75
sg3
S'h36m_S8_Greeting'
p2842
sg5
g2530
sa(dp2843
g2
F1598.75
sg3
S'h36m_S8_Greeting 1'
p2844
sg5
g2530
sa(dp2845
g2
F3319.5
sg3
S'h36m_S8_Phoning'
p2846
sg5
g2530
sa(dp2847
g2
F2970.5
sg3
S'h36m_S8_Phoning 1'
p2848
sg5
g2530
sa(dp2849
g2
F1700.0
sg3
S'h36m_S8_Photo'
p2850
sg5
g2530
sa(dp2851
g2
F1616.0
sg3
S'h36m_S8_Photo 1'
p2852
sg5
g2530
sa(dp2853
g2
F1685.0
sg3
S'h36m_S8_Posing'
p2854
sg5
g2530
sa(dp2855
g2
F1812.75
sg3
S'h36m_S8_Posing 1'
p2856
sg5
g2530
sa(dp2857
g2
F1193.0
sg3
S'h36m_S8_Purchases'
p2858
sg5
g2530
sa(dp2859
g2
F1274.5
sg3
S'h36m_S8_Purchases 1'
p2860
sg5
g2530
sa(dp2861
g2
F2140.0
sg3
S'h36m_S8_Sitting'
p2862
sg5
g2530
sa(dp2863
g2
F2073.5
sg3
S'h36m_S8_Sitting 1'
p2864
sg5
g2530
sa(dp2865
g2
F1501.25
sg3
S'h36m_S8_SittingDown'
p2866
sg5
g2530
sa(dp2867
g2
F1554.5
sg3
S'h36m_S8_SittingDown 1'
p2868
sg5
g2530
sa(dp2869
g2
F3333.75
sg3
S'h36m_S8_Smoking'
p2870
sg5
g2530
sa(dp2871
g2
F2932.25
sg3
S'h36m_S8_Smoking 1'
p2872
sg5
g2530
sa(dp2873
g2
F1715.25
sg3
S'h36m_S8_Waiting'
p2874
sg5
g2530
sa(dp2875
g2
F1612.25
sg3
S'h36m_S8_Waiting 1'
p2876
sg5
g2530
sa(dp2877
g2
F1644.5
sg3
S'h36m_S8_WalkDog'
p2878
sg5
g2530
sa(dp2879
g2
F1735.5
sg3
S'h36m_S8_WalkDog 1'
p2880
sg5
g2530
sa(dp2881
g2
F2359.5
sg3
S'h36m_S8_WalkTogether 1'
p2882
sg5
g2530
sa(dp2883
g2
F2499.75
sg3
S'h36m_S8_WalkTogether 2'
p2884
sg5
g2530
sa(dp2885
g2
F3695.25
sg3
S'h36m_S8_Walking'
p2886
sg5
g2530
sa(dp2887
g2
F3737.25
sg3
S'h36m_S8_Walking 1'
p2888
sg5
g2530
sa(dp2889
g2
F2699.75
sg3
S'h36m_S9_Directions'
p2890
sg5
g2530
sa(dp2891
g2
F2356.75
sg3
S'h36m_S9_Directions 1'
p2892
sg5
g2530
sa(dp2893
g2
F5873.5
sg3
S'h36m_S9_Discussion 1'
p2894
sg5
g2530
sa(dp2895
g2
F5306.5
sg3
S'h36m_S9_Discussion 2'
p2896
sg5
g2530
sa(dp2897
g2
F2686.5
sg3
S'h36m_S9_Eating'
p2898
sg5
g2530
sa(dp2899
g2
F2663.25
sg3
S'h36m_S9_Eating 1'
p2900
sg5
g2530
sa(dp2901
g2
F1447.75
sg3
S'h36m_S9_Greeting'
p2902
sg5
g2530
sa(dp2903
g2
F2711.75
sg3
S'h36m_S9_Greeting 1'
p2904
sg5
g2530
sa(dp2905
g2
F3319.5
sg3
S'h36m_S9_Phoning'
p2906
sg5
g2530
sa(dp2907
g2
F3821.75
sg3
S'h36m_S9_Phoning 1'
p2908
sg5
g2530
sa(dp2909
g2
F2346.0
sg3
S'h36m_S9_Photo'
p2910
sg5
g2530
sa(dp2911
g2
F1449.25
sg3
S'h36m_S9_Photo 1'
p2912
sg5
g2530
sa(dp2913
g2
F1964.5
sg3
S'h36m_S9_Posing'
p2914
sg5
g2530
sa(dp2915
g2
F1968.0
sg3
S'h36m_S9_Posing 1'
p2916
sg5
g2530
sa(dp2917
g2
F1529.25
sg3
S'h36m_S9_Purchases'
p2918
sg5
g2530
sa(dp2919
g2
F1226.25
sg3
S'h36m_S9_Purchases 1'
p2920
sg5
g2530
sa(dp2921
g2
F2962.25
sg3
S'h36m_S9_Sitting'
p2922
sg5
g2530
sa(dp2923
g2
F3071.5
sg3
S'h36m_S9_Sitting 1'
p2924
sg5
g2530
sa(dp2925
g2
F2932.25
sg3
S'h36m_S9_SittingDown'
p2926
sg5
g2530
sa(dp2927
g2
F1554.5
sg3
S'h36m_S9_SittingDown 1'
p2928
sg5
g2530
sa(dp2929
g2
F4334.5
sg3
S'h36m_S9_Smoking'
p2930
sg5
g2530
sa(dp2931
g2
F4377.75
sg3
S'h36m_S9_Smoking 1'
p2932
sg5
g2530
sa(dp2933
g2
F3312.25
sg3
S'h36m_S9_Waiting'
p2934
sg5
g2530
sa(dp2935
g2
F1612.25
sg3
S'h36m_S9_Waiting 1'
p2936
sg5
g2530
sa(dp2937
g2
F2237.5
sg3
S'h36m_S9_WalkDog'
p2938
sg5
g2530
sa(dp2939
g2
F2217.5
sg3
S'h36m_S9_WalkDog 1'
p2940
sg5
g2530
sa(dp2941
g2
F1703.5
sg3
S'h36m_S9_WalkTogether'
p2942
sg5
g2530
sa(dp2943
g2
F1685.25
sg3
S'h36m_S9_WalkTogether 1'
p2944
sg5
g2530
sa(dp2945
g2
F1612.25
sg3
S'h36m_S9_Walking'
p2946
sg5
g2530
sa(dp2947
g2
F2446.5
sg3
S'h36m_S9_Walking 1'
p2948
sg5
g2530
sa(dp2949
g2
F79.0
sg3
S'ung_07_01'
p2950
sg5
g53
sa(dp2951
g2
F82.25
sg3
S'ung_07_02'
p2952
sg5
g53
sa(dp2953
g2
F103.75
sg3
S'ung_07_03'
p2954
sg5
g53
sa(dp2955
g2
F112.25
sg3
S'ung_07_04'
p2956
sg5
g53
sa(dp2957
g2
F129.25
sg3
S'ung_07_05'
p2958
sg5
g53
sa(dp2959
g2
F104.25
sg3
S'ung_07_06'
p2960
sg5
g53
sa(dp2961
g2
F94.75
sg3
S'ung_07_07'
p2962
sg5
g53
sa(dp2963
g2
F90.5
sg3
S'ung_07_08'
p2964
sg5
g53
sa(dp2965
g2
F76.5
sg3
S'ung_07_09'
p2966
sg5
g53
sa(dp2967
g2
F75.25
sg3
S'ung_07_10'
p2968
sg5
g53
sa(dp2969
g2
F78.75
sg3
S'ung_07_11'
p2970
sg5
g53
sa(dp2971
g2
F65.75
sg3
S'ung_07_12'
p2972
sg5
g53
sa(dp2973
g2
F69.25
sg3
S'ung_102_01'
p2974
sg5
g6
sa(dp2975
g2
F43.5
sg3
S'ung_102_02'
p2976
sg5
g6
sa(dp2977
g2
F38.0
sg3
S'ung_102_03'
p2978
sg5
g6
sa(dp2979
g2
F41.75
sg3
S'ung_102_04'
p2980
sg5
g6
sa(dp2981
g2
F27.25
sg3
S'ung_102_05'
p2982
sg5
g6
sa(dp2983
g2
F35.25
sg3
S'ung_102_06'
p2984
sg5
g6
sa(dp2985
g2
F28.0
sg3
S'ung_102_07'
p2986
sg5
g6
sa(dp2987
g2
F35.0
sg3
S'ung_102_08'
p2988
sg5
g6
sa(dp2989
g2
F11.5
sg3
S'ung_102_09'
p2990
sg5
g6
sa(dp2991
g2
F24.25
sg3
S'ung_102_10'
p2992
sg5
g6
sa(dp2993
g2
F43.5
sg3
S'ung_102_11'
p2994
sg5
g6
sa(dp2995
g2
F42.75
sg3
S'ung_102_12'
p2996
sg5
g6
sa(dp2997
g2
F38.0
sg3
S'ung_102_13'
p2998
sg5
g6
sa(dp2999
g2
F49.0
sg3
S'ung_102_14'
p3000
sg5
g6
sa(dp3001
g2
F44.75
sg3
S'ung_102_15'
p3002
sg5
g6
sa(dp3003
g2
F53.25
sg3
S'ung_102_16'
p3004
sg5
g6
sa(dp3005
g2
F44.0
sg3
S'ung_102_17'
p3006
sg5
g6
sa(dp3007
g2
F57.5
sg3
S'ung_102_18'
p3008
sg5
g6
sa(dp3009
g2
F56.5
sg3
S'ung_102_19'
p3010
sg5
g6
sa(dp3011
g2
F151.5
sg3
S'ung_102_20'
p3012
sg5
g6
sa(dp3013
g2
F129.75
sg3
S'ung_102_21'
p3014
sg5
g6
sa(dp3015
g2
F61.5
sg3
S'ung_102_22'
p3016
sg5
g6
sa(dp3017
g2
F89.0
sg3
S'ung_102_23'
p3018
sg5
g6
sa(dp3019
g2
F81.5
sg3
S'ung_102_24'
p3020
sg5
g6
sa(dp3021
g2
F74.0
sg3
S'ung_102_25'
p3022
sg5
g6
sa(dp3023
g2
F112.0
sg3
S'ung_102_26'
p3024
sg5
g6
sa(dp3025
g2
F42.75
sg3
S'ung_102_27'
p3026
sg5
g6
sa(dp3027
g2
F175.75
sg3
S'ung_102_28'
p3028
sg5
g6
sa(dp3029
g2
F199.5
sg3
S'ung_102_29'
p3030
sg5
g6
sa(dp3031
g2
F53.5
sg3
S'ung_102_30'
p3032
sg5
g6
sa(dp3033
g2
F57.25
sg3
S'ung_102_31'
p3034
sg5
g6
sa(dp3035
g2
F76.25
sg3
S'ung_102_32'
p3036
sg5
g6
sa(dp3037
g2
F55.0
sg3
S'ung_102_33'
p3038
sg5
g6
sa(dp3039
g2
F5.25
sg3
S'ung_103_01'
p3040
sg5
g6
sa(dp3041
g2
F373.0
sg3
S'ung_103_02'
p3042
sg5
g6
sa(dp3043
g2
F110.5
sg3
S'ung_103_03'
p3044
sg5
g6
sa(dp3045
g2
F126.5
sg3
S'ung_103_04'
p3046
sg5
g6
sa(dp3047
g2
F136.5
sg3
S'ung_103_05'
p3048
sg5
g6
sa(dp3049
g2
F100.5
sg3
S'ung_103_06'
p3050
sg5
g6
sa(dp3051
g2
F59.0
sg3
S'ung_103_07'
p3052
sg5
g6
sa(dp3053
g2
F139.25
sg3
S'ung_103_08'
p3054
sg5
g6
sa(dp3055
g2
F221.25
sg3
S'ung_104_02'
p3056
sg5
g53
sa(dp3057
g2
F404.75
sg3
S'ung_104_03'
p3058
sg5
g53
sa(dp3059
g2
F49.5
sg3
S'ung_104_04'
p3060
sg5
g53
sa(dp3061
g2
F122.25
sg3
S'ung_104_05'
p3062
sg5
g53
sa(dp3063
g2
F84.25
sg3
S'ung_104_06'
p3064
sg5
g53
sa(dp3065
g2
F576.0
sg3
S'ung_104_07'
p3066
sg5
g53
sa(dp3067
g2
F78.5
sg3
S'ung_104_08'
p3068
sg5
g53
sa(dp3069
g2
F87.25
sg3
S'ung_104_09'
p3070
sg5
g53
sa(dp3071
g2
F83.5
sg3
S'ung_104_10'
p3072
sg5
g53
sa(dp3073
g2
F134.75
sg3
S'ung_104_11'
p3074
sg5
g53
sa(dp3075
g2
F105.25
sg3
S'ung_104_12'
p3076
sg5
g53
sa(dp3077
g2
F137.5
sg3
S'ung_104_13'
p3078
sg5
g53
sa(dp3079
g2
F177.25
sg3
S'ung_104_14'
p3080
sg5
g53
sa(dp3081
g2
F52.0
sg3
S'ung_104_15'
p3082
sg5
g53
sa(dp3083
g2
F81.75
sg3
S'ung_104_16'
p3084
sg5
g53
sa(dp3085
g2
F116.25
sg3
S'ung_104_17'
p3086
sg5
g53
sa(dp3087
g2
F230.25
sg3
S'ung_104_19'
p3088
sg5
g53
sa(dp3089
g2
F175.25
sg3
S'ung_104_20'
p3090
sg5
g53
sa(dp3091
g2
F197.25
sg3
S'ung_104_21'
p3092
sg5
g53
sa(dp3093
g2
F459.5
sg3
S'ung_104_22'
p3094
sg5
g53
sa(dp3095
g2
F458.5
sg3
S'ung_104_23'
p3096
sg5
g53
sa(dp3097
g2
F474.0
sg3
S'ung_104_24'
p3098
sg5
g53
sa(dp3099
g2
F612.75
sg3
S'ung_104_25'
p3100
sg5
g53
sa(dp3101
g2
F275.0
sg3
S'ung_104_26'
p3102
sg5
g53
sa(dp3103
g2
F608.5
sg3
S'ung_104_27'
p3104
sg5
g53
sa(dp3105
g2
F141.5
sg3
S'ung_104_28'
p3106
sg5
g53
sa(dp3107
g2
F120.0
sg3
S'ung_104_29'
p3108
sg5
g53
sa(dp3109
g2
F341.25
sg3
S'ung_104_30'
p3110
sg5
g53
sa(dp3111
g2
F321.75
sg3
S'ung_104_31'
p3112
sg5
g53
sa(dp3113
g2
F391.25
sg3
S'ung_104_32'
p3114
sg5
g53
sa(dp3115
g2
F371.5
sg3
S'ung_104_33'
p3116
sg5
g53
sa(dp3117
g2
F278.75
sg3
S'ung_104_34'
p3118
sg5
g53
sa(dp3119
g2
F268.5
sg3
S'ung_104_35'
p3120
sg5
g53
sa(dp3121
g2
F578.75
sg3
S'ung_104_36'
p3122
sg5
g53
sa(dp3123
g2
F37.5
sg3
S'ung_104_37'
p3124
sg5
g53
sa(dp3125
g2
F667.25
sg3
S'ung_104_38'
p3126
sg5
g53
sa(dp3127
g2
F803.5
sg3
S'ung_104_39'
p3128
sg5
g53
sa(dp3129
g2
F759.0
sg3
S'ung_104_40'
p3130
sg5
g53
sa(dp3131
g2
F389.5
sg3
S'ung_104_41'
p3132
sg5
g53
sa(dp3133
g2
F653.25
sg3
S'ung_104_42'
p3134
sg5
g53
sa(dp3135
g2
F844.25
sg3
S'ung_104_43'
p3136
sg5
g53
sa(dp3137
g2
F271.75
sg3
S'ung_104_44'
p3138
sg5
g53
sa(dp3139
g2
F551.75
sg3
S'ung_104_45'
p3140
sg5
g53
sa(dp3141
g2
F695.75
sg3
S'ung_104_46'
p3142
sg5
g53
sa(dp3143
g2
F423.5
sg3
S'ung_104_47'
p3144
sg5
g53
sa(dp3145
g2
F30.0
sg3
S'ung_104_48'
p3146
sg5
g53
sa(dp3147
g2
F681.5
sg3
S'ung_104_49'
p3148
sg5
g53
sa(dp3149
g2
F801.25
sg3
S'ung_104_50'
p3150
sg5
g53
sa(dp3151
g2
F345.5
sg3
S'ung_104_51'
p3152
sg5
g53
sa(dp3153
g2
F677.0
sg3
S'ung_104_52'
p3154
sg5
g53
sa(dp3155
g2
F74.75
sg3
S'ung_104_53'
p3156
sg5
g53
sa(dp3157
g2
F62.25
sg3
S'ung_104_54'
p3158
sg5
g53
sa(dp3159
g2
F92.0
sg3
S'ung_104_56'
p3160
sg5
g53
sa(dp3161
g2
F96.0
sg3
S'ung_104_57'
p3162
sg5
g53
sa(dp3163
g2
F684.25
sg3
S'ung_105_01'
p3164
sg5
g6
sa(dp3165
g2
F437.0
sg3
S'ung_105_02'
p3166
sg5
g6
sa(dp3167
g2
F466.25
sg3
S'ung_105_03'
p3168
sg5
g6
sa(dp3169
g2
F540.5
sg3
S'ung_105_04'
p3170
sg5
g6
sa(dp3171
g2
F675.0
sg3
S'ung_105_05'
p3172
sg5
g6
sa(dp3173
g2
F34.0
sg3
S'ung_105_06'
p3174
sg5
g6
sa(dp3175
g2
F645.5
sg3
S'ung_105_07'
p3176
sg5
g6
sa(dp3177
g2
F993.0
sg3
S'ung_105_08'
p3178
sg5
g6
sa(dp3179
g2
F1350.5
sg3
S'ung_105_09'
p3180
sg5
g6
sa(dp3181
g2
F793.75
sg3
S'ung_105_10'
p3182
sg5
g6
sa(dp3183
g2
F465.75
sg3
S'ung_105_11'
p3184
sg5
g6
sa(dp3185
g2
F555.5
sg3
S'ung_105_12'
p3186
sg5
g6
sa(dp3187
g2
F740.0
sg3
S'ung_105_13'
p3188
sg5
g6
sa(dp3189
g2
F692.25
sg3
S'ung_105_14'
p3190
sg5
g6
sa(dp3191
g2
F772.5
sg3
S'ung_105_15'
p3192
sg5
g6
sa(dp3193
g2
F473.0
sg3
S'ung_105_16'
p3194
sg5
g6
sa(dp3195
g2
F380.0
sg3
S'ung_105_17'
p3196
sg5
g6
sa(dp3197
g2
F840.75
sg3
S'ung_105_18'
p3198
sg5
g6
sa(dp3199
g2
F471.25
sg3
S'ung_105_19'
p3200
sg5
g6
sa(dp3201
g2
F693.5
sg3
S'ung_105_20'
p3202
sg5
g6
sa(dp3203
g2
F967.5
sg3
S'ung_105_21'
p3204
sg5
g6
sa(dp3205
g2
F526.5
sg3
S'ung_105_22'
p3206
sg5
g6
sa(dp3207
g2
F667.0
sg3
S'ung_105_23'
p3208
sg5
g6
sa(dp3209
g2
F951.0
sg3
S'ung_105_24'
p3210
sg5
g6
sa(dp3211
g2
F784.25
sg3
S'ung_105_25'
p3212
sg5
g6
sa(dp3213
g2
F520.5
sg3
S'ung_105_26'
p3214
sg5
g6
sa(dp3215
g2
F723.5
sg3
S'ung_105_27'
p3216
sg5
g6
sa(dp3217
g2
F826.75
sg3
S'ung_105_28'
p3218
sg5
g6
sa(dp3219
g2
F545.25
sg3
S'ung_105_29'
p3220
sg5
g6
sa(dp3221
g2
F784.75
sg3
S'ung_105_30'
p3222
sg5
g6
sa(dp3223
g2
F498.0
sg3
S'ung_105_31'
p3224
sg5
g6
sa(dp3225
g2
F931.0
sg3
S'ung_105_32'
p3226
sg5
g6
sa(dp3227
g2
F674.5
sg3
S'ung_105_33'
p3228
sg5
g6
sa(dp3229
g2
F552.0
sg3
S'ung_105_34'
p3230
sg5
g6
sa(dp3231
g2
F763.0
sg3
S'ung_105_35'
p3232
sg5
g6
sa(dp3233
g2
F221.75
sg3
S'ung_105_36'
p3234
sg5
g6
sa(dp3235
g2
F78.75
sg3
S'ung_105_37'
p3236
sg5
g6
sa(dp3237
g2
F114.5
sg3
S'ung_105_38'
p3238
sg5
g6
sa(dp3239
g2
F111.5
sg3
S'ung_105_39'
p3240
sg5
g6
sa(dp3241
g2
F117.25
sg3
S'ung_105_40'
p3242
sg5
g6
sa(dp3243
g2
F125.75
sg3
S'ung_105_41'
p3244
sg5
g6
sa(dp3245
g2
F140.0
sg3
S'ung_105_42'
p3246
sg5
g6
sa(dp3247
g2
F56.75
sg3
S'ung_105_43'
p3248
sg5
g6
sa(dp3249
g2
F84.5
sg3
S'ung_105_44'
p3250
sg5
g6
sa(dp3251
g2
F92.75
sg3
S'ung_105_45'
p3252
sg5
g6
sa(dp3253
g2
F80.5
sg3
S'ung_105_46'
p3254
sg5
g6
sa(dp3255
g2
F117.25
sg3
S'ung_105_47'
p3256
sg5
g6
sa(dp3257
g2
F110.0
sg3
S'ung_105_48'
p3258
sg5
g6
sa(dp3259
g2
F120.5
sg3
S'ung_105_49'
p3260
sg5
g6
sa(dp3261
g2
F165.75
sg3
S'ung_105_50'
p3262
sg5
g6
sa(dp3263
g2
F121.0
sg3
S'ung_105_51'
p3264
sg5
g6
sa(dp3265
g2
F127.25
sg3
S'ung_105_52'
p3266
sg5
g6
sa(dp3267
g2
F138.75
sg3
S'ung_105_53'
p3268
sg5
g6
sa(dp3269
g2
F169.5
sg3
S'ung_105_54'
p3270
sg5
g6
sa(dp3271
g2
F116.75
sg3
S'ung_105_55'
p3272
sg5
g6
sa(dp3273
g2
F125.0
sg3
S'ung_105_56'
p3274
sg5
g6
sa(dp3275
g2
F294.25
sg3
S'ung_105_57'
p3276
sg5
g6
sa(dp3277
g2
F123.25
sg3
S'ung_105_58'
p3278
sg5
g6
sa(dp3279
g2
F78.0
sg3
S'ung_105_59'
p3280
sg5
g6
sa(dp3281
g2
F91.75
sg3
S'ung_105_60'
p3282
sg5
g6
sa(dp3283
g2
F90.5
sg3
S'ung_105_61'
p3284
sg5
g6
sa(dp3285
g2
F462.25
sg3
S'ung_105_62'
p3286
sg5
g6
sa(dp3287
g2
F18.5
sg3
S'ung_106_01'
p3288
sg5
g6
sa(dp3289
g2
F28.0
sg3
S'ung_106_02'
p3290
sg5
g6
sa(dp3291
g2
F57.5
sg3
S'ung_106_03'
p3292
sg5
g6
sa(dp3293
g2
F136.75
sg3
S'ung_106_04'
p3294
sg5
g6
sa(dp3295
g2
F57.5
sg3
S'ung_106_05'
p3296
sg5
g6
sa(dp3297
g2
F162.75
sg3
S'ung_106_06'
p3298
sg5
g6
sa(dp3299
g2
F74.5
sg3
S'ung_106_07'
p3300
sg5
g6
sa(dp3301
g2
F82.75
sg3
S'ung_106_08'
p3302
sg5
g6
sa(dp3303
g2
F58.5
sg3
S'ung_106_09'
p3304
sg5
g6
sa(dp3305
g2
F126.75
sg3
S'ung_106_10'
p3306
sg5
g6
sa(dp3307
g2
F171.5
sg3
S'ung_106_11'
p3308
sg5
g6
sa(dp3309
g2
F142.0
sg3
S'ung_106_12'
p3310
sg5
g6
sa(dp3311
g2
F92.0
sg3
S'ung_106_13'
p3312
sg5
g6
sa(dp3313
g2
F144.25
sg3
S'ung_106_14'
p3314
sg5
g6
sa(dp3315
g2
F291.25
sg3
S'ung_106_15'
p3316
sg5
g6
sa(dp3317
g2
F74.75
sg3
S'ung_106_16'
p3318
sg5
g6
sa(dp3319
g2
F140.25
sg3
S'ung_106_17'
p3320
sg5
g6
sa(dp3321
g2
F97.0
sg3
S'ung_106_18'
p3322
sg5
g6
sa(dp3323
g2
F298.25
sg3
S'ung_106_19'
p3324
sg5
g6
sa(dp3325
g2
F190.75
sg3
S'ung_106_20'
p3326
sg5
g6
sa(dp3327
g2
F68.0
sg3
S'ung_106_21'
p3328
sg5
g6
sa(dp3329
g2
F49.5
sg3
S'ung_106_22'
p3330
sg5
g6
sa(dp3331
g2
F64.0
sg3
S'ung_106_23'
p3332
sg5
g6
sa(dp3333
g2
F65.0
sg3
S'ung_106_24'
p3334
sg5
g6
sa(dp3335
g2
F153.5
sg3
S'ung_106_25'
p3336
sg5
g6
sa(dp3337
g2
F99.5
sg3
S'ung_106_26'
p3338
sg5
g6
sa(dp3339
g2
F138.75
sg3
S'ung_106_27'
p3340
sg5
g6
sa(dp3341
g2
F88.75
sg3
S'ung_106_28'
p3342
sg5
g6
sa(dp3343
g2
F291.5
sg3
S'ung_106_29'
p3344
sg5
g6
sa(dp3345
g2
F180.25
sg3
S'ung_106_30'
p3346
sg5
g6
sa(dp3347
g2
F167.75
sg3
S'ung_106_31'
p3348
sg5
g6
sa(dp3349
g2
F222.0
sg3
S'ung_106_32'
p3350
sg5
g6
sa(dp3351
g2
F264.75
sg3
S'ung_106_33'
p3352
sg5
g6
sa(dp3353
g2
F78.5
sg3
S'ung_106_34'
p3354
sg5
g6
sa(dp3355
g2
F132.75
sg3
S'ung_107_01'
p3356
sg5
g53
sa(dp3357
g2
F172.0
sg3
S'ung_107_02'
p3358
sg5
g53
sa(dp3359
g2
F128.25
sg3
S'ung_107_03'
p3360
sg5
g53
sa(dp3361
g2
F109.0
sg3
S'ung_107_04'
p3362
sg5
g53
sa(dp3363
g2
F108.0
sg3
S'ung_107_05'
p3364
sg5
g53
sa(dp3365
g2
F92.25
sg3
S'ung_107_06'
p3366
sg5
g53
sa(dp3367
g2
F128.75
sg3
S'ung_107_07'
p3368
sg5
g53
sa(dp3369
g2
F207.0
sg3
S'ung_107_08'
p3370
sg5
g53
sa(dp3371
g2
F156.5
sg3
S'ung_107_09'
p3372
sg5
g53
sa(dp3373
g2
F142.25
sg3
S'ung_107_10'
p3374
sg5
g53
sa(dp3375
g2
F150.0
sg3
S'ung_107_11'
p3376
sg5
g53
sa(dp3377
g2
F63.75
sg3
S'ung_107_12'
p3378
sg5
g53
sa(dp3379
g2
F53.75
sg3
S'ung_107_13'
p3380
sg5
g53
sa(dp3381
g2
F110.5
sg3
S'ung_107_14'
p3382
sg5
g53
sa(dp3383
g2
F180.75
sg3
S'ung_108_01'
p3384
sg5
g53
sa(dp3385
g2
F286.0
sg3
S'ung_108_02'
p3386
sg5
g53
sa(dp3387
g2
F306.75
sg3
S'ung_108_03'
p3388
sg5
g53
sa(dp3389
g2
F46.0
sg3
S'ung_108_04'
p3390
sg5
g53
sa(dp3391
g2
F45.75
sg3
S'ung_108_05'
p3392
sg5
g53
sa(dp3393
g2
F47.25
sg3
S'ung_108_06'
p3394
sg5
g53
sa(dp3395
g2
F55.75
sg3
S'ung_108_07'
p3396
sg5
g53
sa(dp3397
g2
F56.25
sg3
S'ung_108_08'
p3398
sg5
g53
sa(dp3399
g2
F62.75
sg3
S'ung_108_09'
p3400
sg5
g53
sa(dp3401
g2
F59.5
sg3
S'ung_108_10'
p3402
sg5
g53
sa(dp3403
g2
F61.0
sg3
S'ung_108_11'
p3404
sg5
g53
sa(dp3405
g2
F34.25
sg3
S'ung_108_12'
p3406
sg5
g53
sa(dp3407
g2
F39.0
sg3
S'ung_108_13'
p3408
sg5
g53
sa(dp3409
g2
F44.0
sg3
S'ung_108_14'
p3410
sg5
g53
sa(dp3411
g2
F89.0
sg3
S'ung_108_15'
p3412
sg5
g53
sa(dp3413
g2
F88.25
sg3
S'ung_108_16'
p3414
sg5
g53
sa(dp3415
g2
F57.75
sg3
S'ung_108_17'
p3416
sg5
g53
sa(dp3417
g2
F61.5
sg3
S'ung_108_18'
p3418
sg5
g53
sa(dp3419
g2
F63.75
sg3
S'ung_108_19'
p3420
sg5
g53
sa(dp3421
g2
F69.75
sg3
S'ung_108_20'
p3422
sg5
g53
sa(dp3423
g2
F124.0
sg3
S'ung_108_21'
p3424
sg5
g53
sa(dp3425
g2
F115.5
sg3
S'ung_108_22'
p3426
sg5
g53
sa(dp3427
g2
F166.0
sg3
S'ung_108_23'
p3428
sg5
g53
sa(dp3429
g2
F132.75
sg3
S'ung_108_24'
p3430
sg5
g53
sa(dp3431
g2
F152.75
sg3
S'ung_108_25'
p3432
sg5
g53
sa(dp3433
g2
F138.25
sg3
S'ung_108_26'
p3434
sg5
g53
sa(dp3435
g2
F104.75
sg3
S'ung_108_27'
p3436
sg5
g53
sa(dp3437
g2
F90.75
sg3
S'ung_108_28'
p3438
sg5
g53
sa(dp3439
g2
F200.25
sg3
S'ung_10_01'
p3440
sg5
g53
sa(dp3441
g2
F147.5
sg3
S'ung_10_02'
p3442
sg5
g53
sa(dp3443
g2
F90.5
sg3
S'ung_10_03'
p3444
sg5
g53
sa(dp3445
g2
F137.25
sg3
S'ung_10_04'
p3446
sg5
g53
sa(dp3447
g2
F109.0
sg3
S'ung_10_05'
p3448
sg5
g53
sa(dp3449
g2
F143.0
sg3
S'ung_10_06'
p3450
sg5
g53
sa(dp3451
g2
F249.75
sg3
S'ung_111_01'
p3452
sg5
g6
sa(dp3453
g2
F105.75
sg3
S'ung_111_02'
p3454
sg5
g6
sa(dp3455
g2
F381.0
sg3
S'ung_111_03'
p3456
sg5
g6
sa(dp3457
g2
F181.75
sg3
S'ung_111_04'
p3458
sg5
g6
sa(dp3459
g2
F231.5
sg3
S'ung_111_05'
p3460
sg5
g6
sa(dp3461
g2
F381.0
sg3
S'ung_111_06'
p3462
sg5
g6
sa(dp3463
g2
F493.25
sg3
S'ung_111_07'
p3464
sg5
g6
sa(dp3465
g2
F383.5
sg3
S'ung_111_08'
p3466
sg5
g6
sa(dp3467
g2
F196.25
sg3
S'ung_111_09'
p3468
sg5
g6
sa(dp3469
g2
F112.25
sg3
S'ung_111_10'
p3470
sg5
g6
sa(dp3471
g2
F143.0
sg3
S'ung_111_11'
p3472
sg5
g6
sa(dp3473
g2
F404.25
sg3
S'ung_111_12'
p3474
sg5
g6
sa(dp3475
g2
F320.25
sg3
S'ung_111_13'
p3476
sg5
g6
sa(dp3477
g2
F322.0
sg3
S'ung_111_14'
p3478
sg5
g6
sa(dp3479
g2
F67.25
sg3
S'ung_111_15'
p3480
sg5
g6
sa(dp3481
g2
F107.5
sg3
S'ung_111_16'
p3482
sg5
g6
sa(dp3483
g2
F141.0
sg3
S'ung_111_17'
p3484
sg5
g6
sa(dp3485
g2
F135.25
sg3
S'ung_111_18'
p3486
sg5
g6
sa(dp3487
g2
F256.0
sg3
S'ung_111_19'
p3488
sg5
g6
sa(dp3489
g2
F264.75
sg3
S'ung_111_20'
p3490
sg5
g6
sa(dp3491
g2
F568.75
sg3
S'ung_111_21'
p3492
sg5
g6
sa(dp3493
g2
F1480.5
sg3
S'ung_111_22'
p3494
sg5
g6
sa(dp3495
g2
F282.25
sg3
S'ung_111_23'
p3496
sg5
g6
sa(dp3497
g2
F215.5
sg3
S'ung_111_24'
p3498
sg5
g6
sa(dp3499
g2
F72.75
sg3
S'ung_111_25'
p3500
sg5
g6
sa(dp3501
g2
F680.25
sg3
S'ung_111_26'
p3502
sg5
g6
sa(dp3503
g2
F363.0
sg3
S'ung_111_27'
p3504
sg5
g6
sa(dp3505
g2
F476.75
sg3
S'ung_111_28'
p3506
sg5
g6
sa(dp3507
g2
F136.25
sg3
S'ung_111_29'
p3508
sg5
g6
sa(dp3509
g2
F115.5
sg3
S'ung_111_30'
p3510
sg5
g6
sa(dp3511
g2
F561.75
sg3
S'ung_111_31'
p3512
sg5
g6
sa(dp3513
g2
F187.0
sg3
S'ung_111_32'
p3514
sg5
g6
sa(dp3515
g2
F517.25
sg3
S'ung_111_33'
p3516
sg5
g6
sa(dp3517
g2
F459.25
sg3
S'ung_111_34'
p3518
sg5
g6
sa(dp3519
g2
F375.75
sg3
S'ung_111_35'
p3520
sg5
g6
sa(dp3521
g2
F366.25
sg3
S'ung_111_36'
p3522
sg5
g6
sa(dp3523
g2
F81.0
sg3
S'ung_111_37'
p3524
sg5
g6
sa(dp3525
g2
F660.0
sg3
S'ung_111_38'
p3526
sg5
g6
sa(dp3527
g2
F1023.5
sg3
S'ung_111_39'
p3528
sg5
g6
sa(dp3529
g2
F76.75
sg3
S'ung_111_40'
p3530
sg5
g6
sa(dp3531
g2
F924.25
sg3
S'ung_111_41'
p3532
sg5
g6
sa(dp3533
g2
F208.75
sg3
S'ung_113_01'
p3534
sg5
g6
sa(dp3535
g2
F132.25
sg3
S'ung_113_02'
p3536
sg5
g6
sa(dp3537
g2
F121.25
sg3
S'ung_113_03'
p3538
sg5
g6
sa(dp3539
g2
F242.5
sg3
S'ung_113_04'
p3540
sg5
g6
sa(dp3541
g2
F665.0
sg3
S'ung_113_05'
p3542
sg5
g6
sa(dp3543
g2
F506.5
sg3
S'ung_113_06'
p3544
sg5
g6
sa(dp3545
g2
F145.5
sg3
S'ung_113_07'
p3546
sg5
g6
sa(dp3547
g2
F461.25
sg3
S'ung_113_08'
p3548
sg5
g6
sa(dp3549
g2
F299.5
sg3
S'ung_113_09'
p3550
sg5
g6
sa(dp3551
g2
F333.5
sg3
S'ung_113_10'
p3552
sg5
g6
sa(dp3553
g2
F69.5
sg3
S'ung_113_11'
p3554
sg5
g6
sa(dp3555
g2
F99.25
sg3
S'ung_113_12'
p3556
sg5
g6
sa(dp3557
g2
F335.75
sg3
S'ung_113_13'
p3558
sg5
g6
sa(dp3559
g2
F253.0
sg3
S'ung_113_14'
p3560
sg5
g6
sa(dp3561
g2
F238.25
sg3
S'ung_113_15'
p3562
sg5
g6
sa(dp3563
g2
F174.75
sg3
S'ung_113_16'
p3564
sg5
g6
sa(dp3565
g2
F463.5
sg3
S'ung_113_17'
p3566
sg5
g6
sa(dp3567
g2
F549.0
sg3
S'ung_113_18'
p3568
sg5
g6
sa(dp3569
g2
F200.75
sg3
S'ung_113_19'
p3570
sg5
g6
sa(dp3571
g2
F362.0
sg3
S'ung_113_20'
p3572
sg5
g6
sa(dp3573
g2
F341.75
sg3
S'ung_113_21'
p3574
sg5
g6
sa(dp3575
g2
F298.25
sg3
S'ung_113_22'
p3576
sg5
g6
sa(dp3577
g2
F252.5
sg3
S'ung_113_23'
p3578
sg5
g6
sa(dp3579
g2
F276.25
sg3
S'ung_113_24'
p3580
sg5
g6
sa(dp3581
g2
F172.25
sg3
S'ung_113_25'
p3582
sg5
g6
sa(dp3583
g2
F329.0
sg3
S'ung_113_26'
p3584
sg5
g6
sa(dp3585
g2
F89.25
sg3
S'ung_113_27'
p3586
sg5
g6
sa(dp3587
g2
F1288.25
sg3
S'ung_113_28'
p3588
sg5
g6
sa(dp3589
g2
F1079.5
sg3
S'ung_113_29'
p3590
sg5
g6
sa(dp3591
g2
F80.25
sg3
S'ung_114_01'
p3592
sg5
g6
sa(dp3593
g2
F435.5
sg3
S'ung_114_02'
p3594
sg5
g6
sa(dp3595
g2
F952.75
sg3
S'ung_114_03'
p3596
sg5
g6
sa(dp3597
g2
F223.75
sg3
S'ung_114_04'
p3598
sg5
g6
sa(dp3599
g2
F681.0
sg3
S'ung_114_05'
p3600
sg5
g6
sa(dp3601
g2
F255.75
sg3
S'ung_114_06'
p3602
sg5
g6
sa(dp3603
g2
F404.75
sg3
S'ung_114_07'
p3604
sg5
g6
sa(dp3605
g2
F402.0
sg3
S'ung_114_08'
p3606
sg5
g6
sa(dp3607
g2
F569.25
sg3
S'ung_114_09'
p3608
sg5
g6
sa(dp3609
g2
F2014.5
sg3
S'ung_114_10'
p3610
sg5
g6
sa(dp3611
g2
F870.5
sg3
S'ung_114_11'
p3612
sg5
g6
sa(dp3613
g2
F280.5
sg3
S'ung_114_12'
p3614
sg5
g6
sa(dp3615
g2
F783.0
sg3
S'ung_114_13'
p3616
sg5
g6
sa(dp3617
g2
F1463.5
sg3
S'ung_114_14'
p3618
sg5
g6
sa(dp3619
g2
F346.0
sg3
S'ung_114_15'
p3620
sg5
g6
sa(dp3621
g2
F432.25
sg3
S'ung_114_16'
p3622
sg5
g6
sa(dp3623
g2
F117.25
sg3
S'ung_115_01'
p3624
sg5
g53
sa(dp3625
g2
F100.0
sg3
S'ung_115_02'
p3626
sg5
g53
sa(dp3627
g2
F113.0
sg3
S'ung_115_03'
p3628
sg5
g53
sa(dp3629
g2
F95.25
sg3
S'ung_115_04'
p3630
sg5
g53
sa(dp3631
g2
F146.25
sg3
S'ung_115_05'
p3632
sg5
g53
sa(dp3633
g2
F89.25
sg3
S'ung_115_06'
p3634
sg5
g53
sa(dp3635
g2
F104.0
sg3
S'ung_115_07'
p3636
sg5
g53
sa(dp3637
g2
F121.5
sg3
S'ung_115_08'
p3638
sg5
g53
sa(dp3639
g2
F99.75
sg3
S'ung_115_09'
p3640
sg5
g53
sa(dp3641
g2
F91.5
sg3
S'ung_115_10'
p3642
sg5
g53
sa(dp3643
g2
F178.5
sg3
S'ung_118_01'
p3644
sg5
g53
sa(dp3645
g2
F171.25
sg3
S'ung_118_02'
p3646
sg5
g53
sa(dp3647
g2
F124.25
sg3
S'ung_118_03'
p3648
sg5
g53
sa(dp3649
g2
F161.25
sg3
S'ung_118_04'
p3650
sg5
g53
sa(dp3651
g2
F177.0
sg3
S'ung_118_05'
p3652
sg5
g53
sa(dp3653
g2
F135.75
sg3
S'ung_118_06'
p3654
sg5
g53
sa(dp3655
g2
F174.0
sg3
S'ung_118_07'
p3656
sg5
g53
sa(dp3657
g2
F160.75
sg3
S'ung_118_08'
p3658
sg5
g53
sa(dp3659
g2
F120.0
sg3
S'ung_118_09'
p3660
sg5
g53
sa(dp3661
g2
F130.75
sg3
S'ung_118_10'
p3662
sg5
g53
sa(dp3663
g2
F172.75
sg3
S'ung_118_11'
p3664
sg5
g53
sa(dp3665
g2
F176.75
sg3
S'ung_118_12'
p3666
sg5
g53
sa(dp3667
g2
F170.25
sg3
S'ung_118_13'
p3668
sg5
g53
sa(dp3669
g2
F191.5
sg3
S'ung_118_14'
p3670
sg5
g53
sa(dp3671
g2
F160.0
sg3
S'ung_118_15'
p3672
sg5
g53
sa(dp3673
g2
F165.5
sg3
S'ung_118_16'
p3674
sg5
g53
sa(dp3675
g2
F161.5
sg3
S'ung_118_17'
p3676
sg5
g53
sa(dp3677
g2
F148.0
sg3
S'ung_118_18'
p3678
sg5
g53
sa(dp3679
g2
F153.0
sg3
S'ung_118_19'
p3680
sg5
g53
sa(dp3681
g2
F139.5
sg3
S'ung_118_20'
p3682
sg5
g53
sa(dp3683
g2
F188.5
sg3
S'ung_118_21'
p3684
sg5
g53
sa(dp3685
g2
F162.0
sg3
S'ung_118_22'
p3686
sg5
g53
sa(dp3687
g2
F163.5
sg3
S'ung_118_23'
p3688
sg5
g53
sa(dp3689
g2
F177.25
sg3
S'ung_118_24'
p3690
sg5
g53
sa(dp3691
g2
F146.5
sg3
S'ung_118_25'
p3692
sg5
g53
sa(dp3693
g2
F162.75
sg3
S'ung_118_26'
p3694
sg5
g53
sa(dp3695
g2
F163.25
sg3
S'ung_118_27'
p3696
sg5
g53
sa(dp3697
g2
F174.25
sg3
S'ung_118_28'
p3698
sg5
g53
sa(dp3699
g2
F145.75
sg3
S'ung_118_29'
p3700
sg5
g53
sa(dp3701
g2
F206.25
sg3
S'ung_118_30'
p3702
sg5
g53
sa(dp3703
g2
F52.0
sg3
S'ung_118_31'
p3704
sg5
g53
sa(dp3705
g2
F469.25
sg3
S'ung_118_32'
p3706
sg5
g53
sa(dp3707
g2
F149.25
sg3
S'ung_11_01'
p3708
sg5
g6
sa(dp3709
g2
F305.25
sg3
S'ung_120_01'
p3710
sg5
g53
sa(dp3711
g2
F356.5
sg3
S'ung_120_02'
p3712
sg5
g53
sa(dp3713
g2
F378.75
sg3
S'ung_120_03'
p3714
sg5
g53
sa(dp3715
g2
F1625.75
sg3
S'ung_120_04'
p3716
sg5
g53
sa(dp3717
g2
F338.25
sg3
S'ung_120_05'
p3718
sg5
g53
sa(dp3719
g2
F358.25
sg3
S'ung_120_06'
p3720
sg5
g53
sa(dp3721
g2
F278.25
sg3
S'ung_120_07'
p3722
sg5
g53
sa(dp3723
g2
F300.5
sg3
S'ung_120_08'
p3724
sg5
g53
sa(dp3725
g2
F319.25
sg3
S'ung_120_09'
p3726
sg5
g53
sa(dp3727
g2
F306.25
sg3
S'ung_120_10'
p3728
sg5
g53
sa(dp3729
g2
F310.0
sg3
S'ung_120_11'
p3730
sg5
g53
sa(dp3731
g2
F261.25
sg3
S'ung_120_12'
p3732
sg5
g53
sa(dp3733
g2
F250.25
sg3
S'ung_120_13'
p3734
sg5
g53
sa(dp3735
g2
F320.75
sg3
S'ung_120_14'
p3736
sg5
g53
sa(dp3737
g2
F367.5
sg3
S'ung_120_15'
p3738
sg5
g53
sa(dp3739
g2
F379.0
sg3
S'ung_120_16'
p3740
sg5
g53
sa(dp3741
g2
F288.5
sg3
S'ung_120_17'
p3742
sg5
g53
sa(dp3743
g2
F342.0
sg3
S'ung_120_18'
p3744
sg5
g53
sa(dp3745
g2
F3198.0
sg3
S'ung_120_19'
p3746
sg5
g53
sa(dp3747
g2
F2683.75
sg3
S'ung_120_20'
p3748
sg5
g53
sa(dp3749
g2
F778.25
sg3
S'ung_120_21'
p3750
sg5
g53
sa(dp3751
g2
F331.0
sg3
S'ung_120_22'
p3752
sg5
g53
sa(dp3753
g2
F158.25
sg3
S'ung_122_01'
p3754
sg5
g53
sa(dp3755
g2
F91.0
sg3
S'ung_122_02'
p3756
sg5
g53
sa(dp3757
g2
F167.25
sg3
S'ung_122_03'
p3758
sg5
g53
sa(dp3759
g2
F116.75
sg3
S'ung_122_04'
p3760
sg5
g53
sa(dp3761
g2
F121.5
sg3
S'ung_122_05'
p3762
sg5
g53
sa(dp3763
g2
F100.25
sg3
S'ung_122_06'
p3764
sg5
g53
sa(dp3765
g2
F105.5
sg3
S'ung_122_07'
p3766
sg5
g53
sa(dp3767
g2
F115.5
sg3
S'ung_122_08'
p3768
sg5
g53
sa(dp3769
g2
F112.75
sg3
S'ung_122_09'
p3770
sg5
g53
sa(dp3771
g2
F119.75
sg3
S'ung_122_10'
p3772
sg5
g53
sa(dp3773
g2
F24.75
sg3
S'ung_122_11'
p3774
sg5
g53
sa(dp3775
g2
F127.0
sg3
S'ung_122_12'
p3776
sg5
g53
sa(dp3777
g2
F126.75
sg3
S'ung_122_13'
p3778
sg5
g53
sa(dp3779
g2
F107.25
sg3
S'ung_122_14'
p3780
sg5
g53
sa(dp3781
g2
F130.5
sg3
S'ung_122_15'
p3782
sg5
g53
sa(dp3783
g2
F127.5
sg3
S'ung_122_16'
p3784
sg5
g53
sa(dp3785
g2
F131.0
sg3
S'ung_122_17'
p3786
sg5
g53
sa(dp3787
g2
F116.5
sg3
S'ung_122_18'
p3788
sg5
g53
sa(dp3789
g2
F127.25
sg3
S'ung_122_19'
p3790
sg5
g53
sa(dp3791
g2
F131.0
sg3
S'ung_122_20'
p3792
sg5
g53
sa(dp3793
g2
F129.75
sg3
S'ung_122_21'
p3794
sg5
g53
sa(dp3795
g2
F1342.75
sg3
S'ung_122_22'
p3796
sg5
g53
sa(dp3797
g2
F135.5
sg3
S'ung_122_23'
p3798
sg5
g53
sa(dp3799
g2
F133.0
sg3
S'ung_122_24'
p3800
sg5
g53
sa(dp3801
g2
F135.25
sg3
S'ung_122_25'
p3802
sg5
g53
sa(dp3803
g2
F130.5
sg3
S'ung_122_26'
p3804
sg5
g53
sa(dp3805
g2
F245.75
sg3
S'ung_122_27'
p3806
sg5
g53
sa(dp3807
g2
F232.75
sg3
S'ung_122_28'
p3808
sg5
g53
sa(dp3809
g2
F236.75
sg3
S'ung_122_29'
p3810
sg5
g53
sa(dp3811
g2
F252.25
sg3
S'ung_122_30'
p3812
sg5
g53
sa(dp3813
g2
F233.75
sg3
S'ung_122_31'
p3814
sg5
g53
sa(dp3815
g2
F260.25
sg3
S'ung_122_32'
p3816
sg5
g53
sa(dp3817
g2
F322.75
sg3
S'ung_122_33'
p3818
sg5
g53
sa(dp3819
g2
F241.75
sg3
S'ung_122_34'
p3820
sg5
g53
sa(dp3821
g2
F262.0
sg3
S'ung_122_35'
p3822
sg5
g53
sa(dp3823
g2
F265.5
sg3
S'ung_122_36'
p3824
sg5
g53
sa(dp3825
g2
F239.5
sg3
S'ung_122_37'
p3826
sg5
g53
sa(dp3827
g2
F251.5
sg3
S'ung_122_38'
p3828
sg5
g53
sa(dp3829
g2
F242.75
sg3
S'ung_122_39'
p3830
sg5
g53
sa(dp3831
g2
F132.5
sg3
S'ung_122_40'
p3832
sg5
g53
sa(dp3833
g2
F117.5
sg3
S'ung_122_41'
p3834
sg5
g53
sa(dp3835
g2
F135.0
sg3
S'ung_122_42'
p3836
sg5
g53
sa(dp3837
g2
F149.25
sg3
S'ung_122_43'
p3838
sg5
g53
sa(dp3839
g2
F165.25
sg3
S'ung_122_44'
p3840
sg5
g53
sa(dp3841
g2
F123.75
sg3
S'ung_122_45'
p3842
sg5
g53
sa(dp3843
g2
F125.25
sg3
S'ung_122_46'
p3844
sg5
g53
sa(dp3845
g2
F155.5
sg3
S'ung_122_47'
p3846
sg5
g53
sa(dp3847
g2
F111.25
sg3
S'ung_122_48'
p3848
sg5
g53
sa(dp3849
g2
F114.0
sg3
S'ung_122_49'
p3850
sg5
g53
sa(dp3851
g2
F132.0
sg3
S'ung_122_50'
p3852
sg5
g53
sa(dp3853
g2
F147.75
sg3
S'ung_122_51'
p3854
sg5
g53
sa(dp3855
g2
F127.0
sg3
S'ung_122_52'
p3856
sg5
g53
sa(dp3857
g2
F134.75
sg3
S'ung_122_53'
p3858
sg5
g53
sa(dp3859
g2
F105.0
sg3
S'ung_122_54'
p3860
sg5
g53
sa(dp3861
g2
F184.0
sg3
S'ung_122_55'
p3862
sg5
g53
sa(dp3863
g2
F125.25
sg3
S'ung_122_56'
p3864
sg5
g53
sa(dp3865
g2
F102.25
sg3
S'ung_122_57'
p3866
sg5
g53
sa(dp3867
g2
F91.0
sg3
S'ung_122_58'
p3868
sg5
g53
sa(dp3869
g2
F150.5
sg3
S'ung_122_59'
p3870
sg5
g53
sa(dp3871
g2
F101.5
sg3
S'ung_122_60'
p3872
sg5
g53
sa(dp3873
g2
F125.75
sg3
S'ung_122_61'
p3874
sg5
g53
sa(dp3875
g2
F118.5
sg3
S'ung_122_62'
p3876
sg5
g53
sa(dp3877
g2
F171.25
sg3
S'ung_122_63'
p3878
sg5
g53
sa(dp3879
g2
F144.5
sg3
S'ung_122_64'
p3880
sg5
g53
sa(dp3881
g2
F100.25
sg3
S'ung_122_65'
p3882
sg5
g53
sa(dp3883
g2
F168.0
sg3
S'ung_122_66'
p3884
sg5
g53
sa(dp3885
g2
F168.75
sg3
S'ung_122_67'
p3886
sg5
g53
sa(dp3887
g2
F165.0
sg3
S'ung_122_68'
p3888
sg5
g53
sa(dp3889
g2
F178.75
sg3
S'ung_123_01'
p3890
sg5
g6
sa(dp3891
g2
F189.75
sg3
S'ung_123_02'
p3892
sg5
g6
sa(dp3893
g2
F463.25
sg3
S'ung_123_03'
p3894
sg5
g6
sa(dp3895
g2
F417.25
sg3
S'ung_123_04'
p3896
sg5
g6
sa(dp3897
g2
F226.0
sg3
S'ung_123_05'
p3898
sg5
g6
sa(dp3899
g2
F208.75
sg3
S'ung_123_06'
p3900
sg5
g6
sa(dp3901
g2
F390.0
sg3
S'ung_123_07'
p3902
sg5
g6
sa(dp3903
g2
F213.5
sg3
S'ung_123_08'
p3904
sg5
g6
sa(dp3905
g2
F210.0
sg3
S'ung_123_09'
p3906
sg5
g6
sa(dp3907
g2
F199.75
sg3
S'ung_123_10'
p3908
sg5
g6
sa(dp3909
g2
F156.75
sg3
S'ung_123_11'
p3910
sg5
g6
sa(dp3911
g2
F199.0
sg3
S'ung_123_12'
p3912
sg5
g6
sa(dp3913
g2
F168.25
sg3
S'ung_123_13'
p3914
sg5
g6
sa(dp3915
g2
F160.75
sg3
S'ung_124_01'
p3916
sg5
g6
sa(dp3917
g2
F329.75
sg3
S'ung_124_02'
p3918
sg5
g6
sa(dp3919
g2
F240.25
sg3
S'ung_124_03'
p3920
sg5
g6
sa(dp3921
g2
F181.5
sg3
S'ung_124_04'
p3922
sg5
g6
sa(dp3923
g2
F197.25
sg3
S'ung_124_05'
p3924
sg5
g6
sa(dp3925
g2
F173.5
sg3
S'ung_124_06'
p3926
sg5
g6
sa(dp3927
g2
F324.25
sg3
S'ung_124_07'
p3928
sg5
g6
sa(dp3929
g2
F196.5
sg3
S'ung_124_08'
p3930
sg5
g6
sa(dp3931
g2
F62.25
sg3
S'ung_124_10'
p3932
sg5
g6
sa(dp3933
g2
F249.5
sg3
S'ung_124_11'
p3934
sg5
g6
sa(dp3935
g2
F371.25
sg3
S'ung_124_12'
p3936
sg5
g6
sa(dp3937
g2
F217.0
sg3
S'ung_124_13'
p3938
sg5
g6
sa(dp3939
g2
F1064.25
sg3
S'ung_125_01'
p3940
sg5
g6
sa(dp3941
g2
F1069.0
sg3
S'ung_125_02'
p3942
sg5
g6
sa(dp3943
g2
F1102.0
sg3
S'ung_125_03'
p3944
sg5
g6
sa(dp3945
g2
F1203.0
sg3
S'ung_125_04'
p3946
sg5
g6
sa(dp3947
g2
F669.75
sg3
S'ung_125_05'
p3948
sg5
g6
sa(dp3949
g2
F1221.0
sg3
S'ung_125_06'
p3950
sg5
g6
sa(dp3951
g2
F90.5
sg3
S'ung_125_07'
p3952
sg5
g6
sa(dp3953
g2
F648.25
sg3
S'ung_126_01'
p3954
sg5
g6
sa(dp3955
g2
F439.5
sg3
S'ung_126_02'
p3956
sg5
g6
sa(dp3957
g2
F645.75
sg3
S'ung_126_03'
p3958
sg5
g6
sa(dp3959
g2
F414.25
sg3
S'ung_126_04'
p3960
sg5
g6
sa(dp3961
g2
F389.75
sg3
S'ung_126_05'
p3962
sg5
g6
sa(dp3963
g2
F626.75
sg3
S'ung_126_06'
p3964
sg5
g6
sa(dp3965
g2
F629.0
sg3
S'ung_126_07'
p3966
sg5
g6
sa(dp3967
g2
F384.0
sg3
S'ung_126_08'
p3968
sg5
g6
sa(dp3969
g2
F445.0
sg3
S'ung_126_09'
p3970
sg5
g6
sa(dp3971
g2
F313.25
sg3
S'ung_126_10'
p3972
sg5
g6
sa(dp3973
g2
F457.25
sg3
S'ung_126_11'
p3974
sg5
g6
sa(dp3975
g2
F604.25
sg3
S'ung_126_12'
p3976
sg5
g6
sa(dp3977
g2
F28.75
sg3
S'ung_126_13'
p3978
sg5
g6
sa(dp3979
g2
F1689.25
sg3
S'ung_126_14'
p3980
sg5
g6
sa(dp3981
g2
F63.25
sg3
S'ung_127_01'
p3982
sg5
g53
sa(dp3983
g2
F440.0
sg3
S'ung_127_02'
p3984
sg5
g53
sa(dp3985
g2
F83.0
sg3
S'ung_127_03'
p3986
sg5
g53
sa(dp3987
g2
F111.5
sg3
S'ung_127_04'
p3988
sg5
g53
sa(dp3989
g2
F96.75
sg3
S'ung_127_05'
p3990
sg5
g53
sa(dp3991
g2
F43.25
sg3
S'ung_127_06'
p3992
sg5
g53
sa(dp3993
g2
F36.25
sg3
S'ung_127_07'
p3994
sg5
g53
sa(dp3995
g2
F34.75
sg3
S'ung_127_08'
p3996
sg5
g53
sa(dp3997
g2
F49.5
sg3
S'ung_127_09'
p3998
sg5
g53
sa(dp3999
g2
F42.0
sg3
S'ung_127_10'
p4000
sg5
g53
sa(dp4001
g2
F50.0
sg3
S'ung_127_11'
p4002
sg5
g53
sa(dp4003
g2
F44.25
sg3
S'ung_127_12'
p4004
sg5
g53
sa(dp4005
g2
F46.25
sg3
S'ung_127_13'
p4006
sg5
g53
sa(dp4007
g2
F37.75
sg3
S'ung_127_14'
p4008
sg5
g53
sa(dp4009
g2
F40.75
sg3
S'ung_127_15'
p4010
sg5
g53
sa(dp4011
g2
F64.5
sg3
S'ung_127_16'
p4012
sg5
g53
sa(dp4013
g2
F95.25
sg3
S'ung_127_17'
p4014
sg5
g53
sa(dp4015
g2
F98.25
sg3
S'ung_127_18'
p4016
sg5
g53
sa(dp4017
g2
F110.0
sg3
S'ung_127_19'
p4018
sg5
g53
sa(dp4019
g2
F90.0
sg3
S'ung_127_20'
p4020
sg5
g53
sa(dp4021
g2
F88.75
sg3
S'ung_127_21'
p4022
sg5
g53
sa(dp4023
g2
F89.75
sg3
S'ung_127_22'
p4024
sg5
g53
sa(dp4025
g2
F87.25
sg3
S'ung_127_23'
p4026
sg5
g53
sa(dp4027
g2
F84.75
sg3
S'ung_127_24'
p4028
sg5
g53
sa(dp4029
g2
F57.5
sg3
S'ung_127_25'
p4030
sg5
g53
sa(dp4031
g2
F61.5
sg3
S'ung_127_26'
p4032
sg5
g53
sa(dp4033
g2
F62.25
sg3
S'ung_127_27'
p4034
sg5
g53
sa(dp4035
g2
F54.25
sg3
S'ung_127_28'
p4036
sg5
g53
sa(dp4037
g2
F52.25
sg3
S'ung_127_29'
p4038
sg5
g53
sa(dp4039
g2
F60.0
sg3
S'ung_127_30'
p4040
sg5
g53
sa(dp4041
g2
F128.25
sg3
S'ung_127_31'
p4042
sg5
g53
sa(dp4043
g2
F82.0
sg3
S'ung_127_32'
p4044
sg5
g53
sa(dp4045
g2
F51.25
sg3
S'ung_127_33'
p4046
sg5
g53
sa(dp4047
g2
F50.75
sg3
S'ung_127_34'
p4048
sg5
g53
sa(dp4049
g2
F60.0
sg3
S'ung_127_35'
p4050
sg5
g53
sa(dp4051
g2
F53.75
sg3
S'ung_127_36'
p4052
sg5
g53
sa(dp4053
g2
F85.5
sg3
S'ung_127_37'
p4054
sg5
g53
sa(dp4055
g2
F47.75
sg3
S'ung_127_38'
p4056
sg5
g53
sa(dp4057
g2
F81.25
sg3
S'ung_128_01'
p4058
sg5
g53
sa(dp4059
g2
F41.75
sg3
S'ung_128_02'
p4060
sg5
g53
sa(dp4061
g2
F41.0
sg3
S'ung_128_03'
p4062
sg5
g53
sa(dp4063
g2
F34.0
sg3
S'ung_128_04'
p4064
sg5
g53
sa(dp4065
g2
F52.25
sg3
S'ung_128_05'
p4066
sg5
g53
sa(dp4067
g2
F49.25
sg3
S'ung_128_06'
p4068
sg5
g53
sa(dp4069
g2
F86.5
sg3
S'ung_128_07'
p4070
sg5
g53
sa(dp4071
g2
F82.5
sg3
S'ung_128_08'
p4072
sg5
g53
sa(dp4073
g2
F43.0
sg3
S'ung_128_09'
p4074
sg5
g53
sa(dp4075
g2
F106.75
sg3
S'ung_128_10'
p4076
sg5
g53
sa(dp4077
g2
F94.5
sg3
S'ung_128_11'
p4078
sg5
g53
sa(dp4079
g2
F130.75
sg3
S'ung_12_01'
p4080
sg5
g6
sa(dp4081
g2
F168.25
sg3
S'ung_12_02'
p4082
sg5
g6
sa(dp4083
g2
F141.25
sg3
S'ung_12_03'
p4084
sg5
g6
sa(dp4085
g2
F4449.75
sg3
S'ung_12_04'
p4086
sg5
g6
sa(dp4087
g2
F248.5
sg3
S'ung_131_01'
p4088
sg5
g6
sa(dp4089
g2
F311.75
sg3
S'ung_131_02'
p4090
sg5
g6
sa(dp4091
g2
F275.5
sg3
S'ung_131_03'
p4092
sg5
g6
sa(dp4093
g2
F271.5
sg3
S'ung_131_04'
p4094
sg5
g6
sa(dp4095
g2
F316.0
sg3
S'ung_131_05'
p4096
sg5
g6
sa(dp4097
g2
F296.0
sg3
S'ung_131_06'
p4098
sg5
g6
sa(dp4099
g2
F172.75
sg3
S'ung_131_07'
p4100
sg5
g6
sa(dp4101
g2
F196.0
sg3
S'ung_131_08'
p4102
sg5
g6
sa(dp4103
g2
F573.25
sg3
S'ung_131_09'
p4104
sg5
g6
sa(dp4105
g2
F444.25
sg3
S'ung_131_10'
p4106
sg5
g6
sa(dp4107
g2
F292.0
sg3
S'ung_131_11'
p4108
sg5
g6
sa(dp4109
g2
F191.75
sg3
S'ung_131_12'
p4110
sg5
g6
sa(dp4111
g2
F329.0
sg3
S'ung_131_13'
p4112
sg5
g6
sa(dp4113
g2
F483.0
sg3
S'ung_131_14'
p4114
sg5
g6
sa(dp4115
g2
F353.25
sg3
S'ung_132_01'
p4116
sg5
g6
sa(dp4117
g2
F285.25
sg3
S'ung_132_02'
p4118
sg5
g6
sa(dp4119
g2
F369.25
sg3
S'ung_132_03'
p4120
sg5
g6
sa(dp4121
g2
F337.5
sg3
S'ung_132_04'
p4122
sg5
g6
sa(dp4123
g2
F329.0
sg3
S'ung_132_05'
p4124
sg5
g6
sa(dp4125
g2
F332.0
sg3
S'ung_132_06'
p4126
sg5
g6
sa(dp4127
g2
F225.75
sg3
S'ung_132_07'
p4128
sg5
g6
sa(dp4129
g2
F363.25
sg3
S'ung_132_08'
p4130
sg5
g6
sa(dp4131
g2
F295.5
sg3
S'ung_132_09'
p4132
sg5
g6
sa(dp4133
g2
F406.0
sg3
S'ung_132_10'
p4134
sg5
g6
sa(dp4135
g2
F402.5
sg3
S'ung_132_11'
p4136
sg5
g6
sa(dp4137
g2
F395.25
sg3
S'ung_132_12'
p4138
sg5
g6
sa(dp4139
g2
F2378.5
sg3
S'ung_132_13'
p4140
sg5
g6
sa(dp4141
g2
F1871.0
sg3
S'ung_132_14'
p4142
sg5
g6
sa(dp4143
g2
F1636.25
sg3
S'ung_132_15'
p4144
sg5
g6
sa(dp4145
g2
F2326.5
sg3
S'ung_132_16'
p4146
sg5
g6
sa(dp4147
g2
F67.0
sg3
S'ung_132_17'
p4148
sg5
g6
sa(dp4149
g2
F106.25
sg3
S'ung_132_18'
p4150
sg5
g6
sa(dp4151
g2
F67.75
sg3
S'ung_132_19'
p4152
sg5
g6
sa(dp4153
g2
F85.5
sg3
S'ung_132_20'
p4154
sg5
g6
sa(dp4155
g2
F88.5
sg3
S'ung_132_21'
p4156
sg5
g6
sa(dp4157
g2
F92.75
sg3
S'ung_132_22'
p4158
sg5
g6
sa(dp4159
g2
F186.5
sg3
S'ung_132_23'
p4160
sg5
g6
sa(dp4161
g2
F184.75
sg3
S'ung_132_24'
p4162
sg5
g6
sa(dp4163
g2
F139.0
sg3
S'ung_132_25'
p4164
sg5
g6
sa(dp4165
g2
F159.25
sg3
S'ung_132_26'
p4166
sg5
g6
sa(dp4167
g2
F181.75
sg3
S'ung_132_27'
p4168
sg5
g6
sa(dp4169
g2
F179.5
sg3
S'ung_132_28'
p4170
sg5
g6
sa(dp4171
g2
F194.25
sg3
S'ung_132_29'
p4172
sg5
g6
sa(dp4173
g2
F195.75
sg3
S'ung_132_30'
p4174
sg5
g6
sa(dp4175
g2
F179.5
sg3
S'ung_132_31'
p4176
sg5
g6
sa(dp4177
g2
F161.0
sg3
S'ung_132_32'
p4178
sg5
g6
sa(dp4179
g2
F102.75
sg3
S'ung_132_33'
p4180
sg5
g6
sa(dp4181
g2
F129.25
sg3
S'ung_132_34'
p4182
sg5
g6
sa(dp4183
g2
F316.25
sg3
S'ung_132_35'
p4184
sg5
g6
sa(dp4185
g2
F973.75
sg3
S'ung_132_36'
p4186
sg5
g6
sa(dp4187
g2
F1682.75
sg3
S'ung_132_37'
p4188
sg5
g6
sa(dp4189
g2
F45.0
sg3
S'ung_132_38'
p4190
sg5
g6
sa(dp4191
g2
F1562.25
sg3
S'ung_132_39'
p4192
sg5
g6
sa(dp4193
g2
F211.75
sg3
S'ung_132_40'
p4194
sg5
g6
sa(dp4195
g2
F1589.75
sg3
S'ung_132_41'
p4196
sg5
g6
sa(dp4197
g2
F172.5
sg3
S'ung_132_42'
p4198
sg5
g6
sa(dp4199
g2
F201.0
sg3
S'ung_132_43'
p4200
sg5
g6
sa(dp4201
g2
F1300.75
sg3
S'ung_132_44'
p4202
sg5
g6
sa(dp4203
g2
F382.75
sg3
S'ung_132_45'
p4204
sg5
g6
sa(dp4205
g2
F305.75
sg3
S'ung_132_46'
p4206
sg5
g6
sa(dp4207
g2
F377.5
sg3
S'ung_132_47'
p4208
sg5
g6
sa(dp4209
g2
F406.25
sg3
S'ung_132_48'
p4210
sg5
g6
sa(dp4211
g2
F437.0
sg3
S'ung_132_49'
p4212
sg5
g6
sa(dp4213
g2
F534.75
sg3
S'ung_132_50'
p4214
sg5
g6
sa(dp4215
g2
F43.5
sg3
S'ung_132_51'
p4216
sg5
g6
sa(dp4217
g2
F333.75
sg3
S'ung_132_52'
p4218
sg5
g6
sa(dp4219
g2
F1625.5
sg3
S'ung_132_53'
p4220
sg5
g6
sa(dp4221
g2
F1507.25
sg3
S'ung_132_54'
p4222
sg5
g6
sa(dp4223
g2
F773.75
sg3
S'ung_132_55'
p4224
sg5
g6
sa(dp4225
g2
F1771.0
sg3
S'ung_132_56'
p4226
sg5
g6
sa(dp4227
g2
F343.75
sg3
S'ung_133_01'
p4228
sg5
g53
sa(dp4229
g2
F358.5
sg3
S'ung_133_02'
p4230
sg5
g53
sa(dp4231
g2
F314.75
sg3
S'ung_133_03'
p4232
sg5
g53
sa(dp4233
g2
F195.75
sg3
S'ung_133_04'
p4234
sg5
g53
sa(dp4235
g2
F244.0
sg3
S'ung_133_05'
p4236
sg5
g53
sa(dp4237
g2
F220.25
sg3
S'ung_133_06'
p4238
sg5
g53
sa(dp4239
g2
F245.5
sg3
S'ung_133_07'
p4240
sg5
g53
sa(dp4241
g2
F307.75
sg3
S'ung_133_08'
p4242
sg5
g53
sa(dp4243
g2
F432.25
sg3
S'ung_133_09'
p4244
sg5
g53
sa(dp4245
g2
F330.75
sg3
S'ung_133_10'
p4246
sg5
g53
sa(dp4247
g2
F265.5
sg3
S'ung_133_11'
p4248
sg5
g53
sa(dp4249
g2
F242.5
sg3
S'ung_133_12'
p4250
sg5
g53
sa(dp4251
g2
F285.5
sg3
S'ung_133_13'
p4252
sg5
g53
sa(dp4253
g2
F222.0
sg3
S'ung_133_14'
p4254
sg5
g53
sa(dp4255
g2
F222.0
sg3
S'ung_133_15'
p4256
sg5
g53
sa(dp4257
g2
F126.25
sg3
S'ung_133_16'
p4258
sg5
g53
sa(dp4259
g2
F144.25
sg3
S'ung_133_17'
p4260
sg5
g53
sa(dp4261
g2
F117.25
sg3
S'ung_133_18'
p4262
sg5
g53
sa(dp4263
g2
F208.5
sg3
S'ung_133_19'
p4264
sg5
g53
sa(dp4265
g2
F272.75
sg3
S'ung_133_20'
p4266
sg5
g53
sa(dp4267
g2
F196.5
sg3
S'ung_133_21'
p4268
sg5
g53
sa(dp4269
g2
F189.75
sg3
S'ung_133_22'
p4270
sg5
g53
sa(dp4271
g2
F212.0
sg3
S'ung_133_23'
p4272
sg5
g53
sa(dp4273
g2
F236.5
sg3
S'ung_133_24'
p4274
sg5
g53
sa(dp4275
g2
F102.5
sg3
S'ung_133_25'
p4276
sg5
g53
sa(dp4277
g2
F308.25
sg3
S'ung_133_26'
p4278
sg5
g53
sa(dp4279
g2
F89.25
sg3
S'ung_134_01'
p4280
sg5
g6
sa(dp4281
g2
F65.75
sg3
S'ung_134_02'
p4282
sg5
g6
sa(dp4283
g2
F99.75
sg3
S'ung_134_03'
p4284
sg5
g6
sa(dp4285
g2
F47.75
sg3
S'ung_134_04'
p4286
sg5
g6
sa(dp4287
g2
F81.0
sg3
S'ung_134_05'
p4288
sg5
g6
sa(dp4289
g2
F74.75
sg3
S'ung_134_06'
p4290
sg5
g6
sa(dp4291
g2
F75.5
sg3
S'ung_134_07'
p4292
sg5
g6
sa(dp4293
g2
F65.0
sg3
S'ung_134_08'
p4294
sg5
g6
sa(dp4295
g2
F50.5
sg3
S'ung_134_09'
p4296
sg5
g6
sa(dp4297
g2
F85.5
sg3
S'ung_134_10'
p4298
sg5
g6
sa(dp4299
g2
F85.25
sg3
S'ung_134_11'
p4300
sg5
g6
sa(dp4301
g2
F92.0
sg3
S'ung_134_12'
p4302
sg5
g6
sa(dp4303
g2
F110.25
sg3
S'ung_134_13'
p4304
sg5
g6
sa(dp4305
g2
F118.5
sg3
S'ung_134_14'
p4306
sg5
g6
sa(dp4307
g2
F64.5
sg3
S'ung_134_15'
p4308
sg5
g6
sa(dp4309
g2
F1529.0
sg3
S'ung_135_01'
p4310
sg5
g6
sa(dp4311
g2
F1300.5
sg3
S'ung_135_02'
p4312
sg5
g6
sa(dp4313
g2
F687.25
sg3
S'ung_135_03'
p4314
sg5
g6
sa(dp4315
g2
F329.0
sg3
S'ung_135_04'
p4316
sg5
g6
sa(dp4317
g2
F615.0
sg3
S'ung_135_05'
p4318
sg5
g6
sa(dp4319
g2
F815.25
sg3
S'ung_135_06'
p4320
sg5
g6
sa(dp4321
g2
F368.0
sg3
S'ung_135_07'
p4322
sg5
g6
sa(dp4323
g2
F72.75
sg3
S'ung_135_08'
p4324
sg5
g6
sa(dp4325
g2
F537.5
sg3
S'ung_135_09'
p4326
sg5
g6
sa(dp4327
g2
F500.25
sg3
S'ung_135_10'
p4328
sg5
g6
sa(dp4329
g2
F611.5
sg3
S'ung_135_11'
p4330
sg5
g6
sa(dp4331
g2
F218.0
sg3
S'ung_136_01'
p4332
sg5
g6
sa(dp4333
g2
F215.0
sg3
S'ung_136_02'
p4334
sg5
g6
sa(dp4335
g2
F298.75
sg3
S'ung_136_03'
p4336
sg5
g6
sa(dp4337
g2
F317.0
sg3
S'ung_136_04'
p4338
sg5
g6
sa(dp4339
g2
F255.5
sg3
S'ung_136_05'
p4340
sg5
g6
sa(dp4341
g2
F235.75
sg3
S'ung_136_06'
p4342
sg5
g6
sa(dp4343
g2
F276.75
sg3
S'ung_136_07'
p4344
sg5
g6
sa(dp4345
g2
F333.0
sg3
S'ung_136_08'
p4346
sg5
g6
sa(dp4347
g2
F282.5
sg3
S'ung_136_09'
p4348
sg5
g6
sa(dp4349
g2
F334.25
sg3
S'ung_136_10'
p4350
sg5
g6
sa(dp4351
g2
F359.5
sg3
S'ung_136_11'
p4352
sg5
g6
sa(dp4353
g2
F326.75
sg3
S'ung_136_12'
p4354
sg5
g6
sa(dp4355
g2
F313.0
sg3
S'ung_136_13'
p4356
sg5
g6
sa(dp4357
g2
F266.25
sg3
S'ung_136_14'
p4358
sg5
g6
sa(dp4359
g2
F337.5
sg3
S'ung_136_15'
p4360
sg5
g6
sa(dp4361
g2
F314.75
sg3
S'ung_136_16'
p4362
sg5
g6
sa(dp4363
g2
F530.0
sg3
S'ung_136_17'
p4364
sg5
g6
sa(dp4365
g2
F373.0
sg3
S'ung_136_18'
p4366
sg5
g6
sa(dp4367
g2
F248.25
sg3
S'ung_136_20'
p4368
sg5
g6
sa(dp4369
g2
F150.25
sg3
S'ung_136_21'
p4370
sg5
g6
sa(dp4371
g2
F209.0
sg3
S'ung_136_22'
p4372
sg5
g6
sa(dp4373
g2
F185.5
sg3
S'ung_136_23'
p4374
sg5
g6
sa(dp4375
g2
F268.75
sg3
S'ung_136_24'
p4376
sg5
g6
sa(dp4377
g2
F447.25
sg3
S'ung_136_25'
p4378
sg5
g6
sa(dp4379
g2
F355.5
sg3
S'ung_136_26'
p4380
sg5
g6
sa(dp4381
g2
F271.75
sg3
S'ung_136_27'
p4382
sg5
g6
sa(dp4383
g2
F278.5
sg3
S'ung_136_28'
p4384
sg5
g6
sa(dp4385
g2
F295.5
sg3
S'ung_136_29'
p4386
sg5
g6
sa(dp4387
g2
F318.0
sg3
S'ung_136_30'
p4388
sg5
g6
sa(dp4389
g2
F359.0
sg3
S'ung_136_31'
p4390
sg5
g6
sa(dp4391
g2
F360.75
sg3
S'ung_136_32'
p4392
sg5
g6
sa(dp4393
g2
F246.5
sg3
S'ung_136_33'
p4394
sg5
g6
sa(dp4395
g2
F540.75
sg3
S'ung_137_01'
p4396
sg5
g6
sa(dp4397
g2
F541.75
sg3
S'ung_137_02'
p4398
sg5
g6
sa(dp4399
g2
F1635.25
sg3
S'ung_137_03'
p4400
sg5
g6
sa(dp4401
g2
F484.25
sg3
S'ung_137_04'
p4402
sg5
g6
sa(dp4403
g2
F439.75
sg3
S'ung_137_05'
p4404
sg5
g6
sa(dp4405
g2
F407.25
sg3
S'ung_137_06'
p4406
sg5
g6
sa(dp4407
g2
F1193.75
sg3
S'ung_137_07'
p4408
sg5
g6
sa(dp4409
g2
F484.5
sg3
S'ung_137_08'
p4410
sg5
g6
sa(dp4411
g2
F617.5
sg3
S'ung_137_09'
p4412
sg5
g6
sa(dp4413
g2
F561.5
sg3
S'ung_137_10'
p4414
sg5
g6
sa(dp4415
g2
F1232.5
sg3
S'ung_137_11'
p4416
sg5
g6
sa(dp4417
g2
F492.25
sg3
S'ung_137_12'
p4418
sg5
g6
sa(dp4419
g2
F740.75
sg3
S'ung_137_13'
p4420
sg5
g6
sa(dp4421
g2
F566.0
sg3
S'ung_137_14'
p4422
sg5
g6
sa(dp4423
g2
F1345.5
sg3
S'ung_137_15'
p4424
sg5
g6
sa(dp4425
g2
F383.0
sg3
S'ung_137_16'
p4426
sg5
g6
sa(dp4427
g2
F487.0
sg3
S'ung_137_17'
p4428
sg5
g6
sa(dp4429
g2
F348.75
sg3
S'ung_137_18'
p4430
sg5
g6
sa(dp4431
g2
F1330.25
sg3
S'ung_137_19'
p4432
sg5
g6
sa(dp4433
g2
F400.75
sg3
S'ung_137_20'
p4434
sg5
g6
sa(dp4435
g2
F478.5
sg3
S'ung_137_21'
p4436
sg5
g6
sa(dp4437
g2
F410.5
sg3
S'ung_137_22'
p4438
sg5
g6
sa(dp4439
g2
F1137.0
sg3
S'ung_137_23'
p4440
sg5
g6
sa(dp4441
g2
F298.25
sg3
S'ung_137_24'
p4442
sg5
g6
sa(dp4443
g2
F38.75
sg3
S'ung_137_25'
p4444
sg5
g6
sa(dp4445
g2
F393.5
sg3
S'ung_137_26'
p4446
sg5
g6
sa(dp4447
g2
F290.25
sg3
S'ung_137_27'
p4448
sg5
g6
sa(dp4449
g2
F930.5
sg3
S'ung_137_28'
p4450
sg5
g6
sa(dp4451
g2
F282.0
sg3
S'ung_137_29'
p4452
sg5
g6
sa(dp4453
g2
F879.0
sg3
S'ung_137_30'
p4454
sg5
g6
sa(dp4455
g2
F842.0
sg3
S'ung_137_31'
p4456
sg5
g6
sa(dp4457
g2
F1254.5
sg3
S'ung_137_32'
p4458
sg5
g6
sa(dp4459
g2
F766.0
sg3
S'ung_137_33'
p4460
sg5
g6
sa(dp4461
g2
F224.0
sg3
S'ung_137_34'
p4462
sg5
g6
sa(dp4463
g2
F623.0
sg3
S'ung_137_35'
p4464
sg5
g6
sa(dp4465
g2
F639.0
sg3
S'ung_137_36'
p4466
sg5
g6
sa(dp4467
g2
F1279.25
sg3
S'ung_137_37'
p4468
sg5
g6
sa(dp4469
g2
F504.75
sg3
S'ung_137_38'
p4470
sg5
g6
sa(dp4471
g2
F733.5
sg3
S'ung_137_39'
p4472
sg5
g6
sa(dp4473
g2
F509.5
sg3
S'ung_137_40'
p4474
sg5
g6
sa(dp4475
g2
F1298.5
sg3
S'ung_137_41'
p4476
sg5
g6
sa(dp4477
g2
F545.5
sg3
S'ung_137_42'
p4478
sg5
g6
sa(dp4479
g2
F201.5
sg3
S'ung_138_01'
p4480
sg5
g53
sa(dp4481
g2
F194.75
sg3
S'ung_138_02'
p4482
sg5
g53
sa(dp4483
g2
F170.0
sg3
S'ung_138_03'
p4484
sg5
g53
sa(dp4485
g2
F175.25
sg3
S'ung_138_04'
p4486
sg5
g53
sa(dp4487
g2
F92.75
sg3
S'ung_138_05'
p4488
sg5
g53
sa(dp4489
g2
F99.5
sg3
S'ung_138_06'
p4490
sg5
g53
sa(dp4491
g2
F96.25
sg3
S'ung_138_07'
p4492
sg5
g53
sa(dp4493
g2
F100.25
sg3
S'ung_138_08'
p4494
sg5
g53
sa(dp4495
g2
F106.75
sg3
S'ung_138_09'
p4496
sg5
g53
sa(dp4497
g2
F109.25
sg3
S'ung_138_10'
p4498
sg5
g53
sa(dp4499
g2
F110.5
sg3
S'ung_138_11'
p4500
sg5
g53
sa(dp4501
g2
F81.25
sg3
S'ung_138_12'
p4502
sg5
g53
sa(dp4503
g2
F108.0
sg3
S'ung_138_13'
p4504
sg5
g53
sa(dp4505
g2
F105.0
sg3
S'ung_138_14'
p4506
sg5
g53
sa(dp4507
g2
F103.25
sg3
S'ung_138_15'
p4508
sg5
g53
sa(dp4509
g2
F107.0
sg3
S'ung_138_16'
p4510
sg5
g53
sa(dp4511
g2
F110.0
sg3
S'ung_138_17'
p4512
sg5
g53
sa(dp4513
g2
F96.75
sg3
S'ung_138_18'
p4514
sg5
g53
sa(dp4515
g2
F115.0
sg3
S'ung_138_19'
p4516
sg5
g53
sa(dp4517
g2
F112.5
sg3
S'ung_138_20'
p4518
sg5
g53
sa(dp4519
g2
F98.75
sg3
S'ung_138_21'
p4520
sg5
g53
sa(dp4521
g2
F96.5
sg3
S'ung_138_22'
p4522
sg5
g53
sa(dp4523
g2
F114.75
sg3
S'ung_138_23'
p4524
sg5
g53
sa(dp4525
g2
F125.75
sg3
S'ung_138_24'
p4526
sg5
g53
sa(dp4527
g2
F89.25
sg3
S'ung_138_25'
p4528
sg5
g53
sa(dp4529
g2
F237.0
sg3
S'ung_138_26'
p4530
sg5
g53
sa(dp4531
g2
F234.5
sg3
S'ung_138_27'
p4532
sg5
g53
sa(dp4533
g2
F239.5
sg3
S'ung_138_28'
p4534
sg5
g53
sa(dp4535
g2
F203.75
sg3
S'ung_138_29'
p4536
sg5
g53
sa(dp4537
g2
F271.5
sg3
S'ung_138_30'
p4538
sg5
g53
sa(dp4539
g2
F227.25
sg3
S'ung_138_32'
p4540
sg5
g53
sa(dp4541
g2
F261.25
sg3
S'ung_138_33'
p4542
sg5
g53
sa(dp4543
g2
F230.75
sg3
S'ung_138_34'
p4544
sg5
g53
sa(dp4545
g2
F227.25
sg3
S'ung_138_35'
p4546
sg5
g53
sa(dp4547
g2
F269.75
sg3
S'ung_138_36'
p4548
sg5
g53
sa(dp4549
g2
F202.25
sg3
S'ung_138_37'
p4550
sg5
g53
sa(dp4551
g2
F241.25
sg3
S'ung_138_38'
p4552
sg5
g53
sa(dp4553
g2
F219.25
sg3
S'ung_138_39'
p4554
sg5
g53
sa(dp4555
g2
F204.75
sg3
S'ung_138_40'
p4556
sg5
g53
sa(dp4557
g2
F196.0
sg3
S'ung_138_41'
p4558
sg5
g53
sa(dp4559
g2
F230.25
sg3
S'ung_138_42'
p4560
sg5
g53
sa(dp4561
g2
F252.5
sg3
S'ung_138_44'
p4562
sg5
g53
sa(dp4563
g2
F79.0
sg3
S'ung_138_46'
p4564
sg5
g53
sa(dp4565
g2
F170.75
sg3
S'ung_138_47'
p4566
sg5
g53
sa(dp4567
g2
F157.5
sg3
S'ung_138_48'
p4568
sg5
g53
sa(dp4569
g2
F175.75
sg3
S'ung_138_51'
p4570
sg5
g53
sa(dp4571
g2
F217.5
sg3
S'ung_138_52'
p4572
sg5
g53
sa(dp4573
g2
F188.75
sg3
S'ung_138_53'
p4574
sg5
g53
sa(dp4575
g2
F99.0
sg3
S'ung_138_55'
p4576
sg5
g53
sa(dp4577
g2
F272.5
sg3
S'ung_139_01'
p4578
sg5
g6
sa(dp4579
g2
F234.25
sg3
S'ung_139_02'
p4580
sg5
g6
sa(dp4581
g2
F246.0
sg3
S'ung_139_03'
p4582
sg5
g6
sa(dp4583
g2
F220.75
sg3
S'ung_139_04'
p4584
sg5
g6
sa(dp4585
g2
F127.75
sg3
S'ung_139_05'
p4586
sg5
g6
sa(dp4587
g2
F338.0
sg3
S'ung_139_06'
p4588
sg5
g6
sa(dp4589
g2
F126.25
sg3
S'ung_139_07'
p4590
sg5
g6
sa(dp4591
g2
F252.0
sg3
S'ung_139_08'
p4592
sg5
g6
sa(dp4593
g2
F247.0
sg3
S'ung_139_09'
p4594
sg5
g6
sa(dp4595
g2
F172.5
sg3
S'ung_139_10'
p4596
sg5
g6
sa(dp4597
g2
F80.0
sg3
S'ung_139_11'
p4598
sg5
g6
sa(dp4599
g2
F244.5
sg3
S'ung_139_12'
p4600
sg5
g6
sa(dp4601
g2
F346.75
sg3
S'ung_139_13'
p4602
sg5
g6
sa(dp4603
g2
F247.5
sg3
S'ung_139_14'
p4604
sg5
g6
sa(dp4605
g2
F269.5
sg3
S'ung_139_15'
p4606
sg5
g6
sa(dp4607
g2
F163.25
sg3
S'ung_139_16'
p4608
sg5
g6
sa(dp4609
g2
F179.75
sg3
S'ung_139_17'
p4610
sg5
g6
sa(dp4611
g2
F213.5
sg3
S'ung_139_18'
p4612
sg5
g6
sa(dp4613
g2
F250.0
sg3
S'ung_139_19'
p4614
sg5
g6
sa(dp4615
g2
F392.5
sg3
S'ung_139_20'
p4616
sg5
g6
sa(dp4617
g2
F327.5
sg3
S'ung_139_21'
p4618
sg5
g6
sa(dp4619
g2
F356.25
sg3
S'ung_139_22'
p4620
sg5
g6
sa(dp4621
g2
F398.0
sg3
S'ung_139_23'
p4622
sg5
g6
sa(dp4623
g2
F179.0
sg3
S'ung_139_24'
p4624
sg5
g6
sa(dp4625
g2
F165.75
sg3
S'ung_139_25'
p4626
sg5
g6
sa(dp4627
g2
F162.75
sg3
S'ung_139_26'
p4628
sg5
g6
sa(dp4629
g2
F181.75
sg3
S'ung_139_27'
p4630
sg5
g6
sa(dp4631
g2
F742.5
sg3
S'ung_139_28'
p4632
sg5
g6
sa(dp4633
g2
F526.0
sg3
S'ung_139_29'
p4634
sg5
g6
sa(dp4635
g2
F315.25
sg3
S'ung_139_30'
p4636
sg5
g6
sa(dp4637
g2
F526.5
sg3
S'ung_139_31'
p4638
sg5
g6
sa(dp4639
g2
F473.5
sg3
S'ung_139_32'
p4640
sg5
g6
sa(dp4641
g2
F749.25
sg3
S'ung_139_33'
p4642
sg5
g6
sa(dp4643
g2
F280.5
sg3
S'ung_139_34'
p4644
sg5
g6
sa(dp4645
g2
F207.5
sg3
S'ung_140_01'
p4646
sg5
g6
sa(dp4647
g2
F234.25
sg3
S'ung_140_02'
p4648
sg5
g6
sa(dp4649
g2
F255.75
sg3
S'ung_140_03'
p4650
sg5
g6
sa(dp4651
g2
F275.75
sg3
S'ung_140_04'
p4652
sg5
g6
sa(dp4653
g2
F6.75
sg3
S'ung_140_05'
p4654
sg5
g6
sa(dp4655
g2
F890.5
sg3
S'ung_140_06'
p4656
sg5
g6
sa(dp4657
g2
F308.75
sg3
S'ung_140_07'
p4658
sg5
g6
sa(dp4659
g2
F224.5
sg3
S'ung_140_08'
p4660
sg5
g6
sa(dp4661
g2
F203.75
sg3
S'ung_140_09'
p4662
sg5
g6
sa(dp4663
g2
F1310.25
sg3
S'ung_142_01'
p4664
sg5
g6
sa(dp4665
g2
F470.5
sg3
S'ung_142_02'
p4666
sg5
g6
sa(dp4667
g2
F606.75
sg3
S'ung_142_03'
p4668
sg5
g6
sa(dp4669
g2
F932.75
sg3
S'ung_142_04'
p4670
sg5
g6
sa(dp4671
g2
F1683.0
sg3
S'ung_142_05'
p4672
sg5
g6
sa(dp4673
g2
F661.0
sg3
S'ung_142_06'
p4674
sg5
g6
sa(dp4675
g2
F2096.5
sg3
S'ung_142_07'
p4676
sg5
g6
sa(dp4677
g2
F758.25
sg3
S'ung_142_08'
p4678
sg5
g6
sa(dp4679
g2
F666.5
sg3
S'ung_142_09'
p4680
sg5
g6
sa(dp4681
g2
F1127.0
sg3
S'ung_142_10'
p4682
sg5
g6
sa(dp4683
g2
F819.25
sg3
S'ung_142_11'
p4684
sg5
g6
sa(dp4685
g2
F1175.5
sg3
S'ung_142_12'
p4686
sg5
g6
sa(dp4687
g2
F1289.75
sg3
S'ung_142_13'
p4688
sg5
g6
sa(dp4689
g2
F415.75
sg3
S'ung_142_14'
p4690
sg5
g6
sa(dp4691
g2
F1343.5
sg3
S'ung_142_15'
p4692
sg5
g6
sa(dp4693
g2
F1454.5
sg3
S'ung_142_16'
p4694
sg5
g6
sa(dp4695
g2
F1107.75
sg3
S'ung_142_17'
p4696
sg5
g6
sa(dp4697
g2
F1224.25
sg3
S'ung_142_18'
p4698
sg5
g6
sa(dp4699
g2
F1123.25
sg3
S'ung_142_19'
p4700
sg5
g6
sa(dp4701
g2
F383.5
sg3
S'ung_142_20'
p4702
sg5
g6
sa(dp4703
g2
F353.0
sg3
S'ung_142_21'
p4704
sg5
g6
sa(dp4705
g2
F1305.25
sg3
S'ung_142_22'
p4706
sg5
g6
sa(dp4707
g2
F25.0
sg3
S'ung_143_01'
p4708
sg5
g6
sa(dp4709
g2
F52.0
sg3
S'ung_143_02'
p4710
sg5
g6
sa(dp4711
g2
F59.75
sg3
S'ung_143_03'
p4712
sg5
g6
sa(dp4713
g2
F271.25
sg3
S'ung_143_04'
p4714
sg5
g6
sa(dp4715
g2
F84.5
sg3
S'ung_143_05'
p4716
sg5
g6
sa(dp4717
g2
F98.25
sg3
S'ung_143_06'
p4718
sg5
g6
sa(dp4719
g2
F139.25
sg3
S'ung_143_07'
p4720
sg5
g6
sa(dp4721
g2
F96.75
sg3
S'ung_143_08'
p4722
sg5
g6
sa(dp4723
g2
F136.25
sg3
S'ung_143_09'
p4724
sg5
g6
sa(dp4725
g2
F143.75
sg3
S'ung_143_10'
p4726
sg5
g6
sa(dp4727
g2
F164.25
sg3
S'ung_143_11'
p4728
sg5
g6
sa(dp4729
g2
F147.5
sg3
S'ung_143_12'
p4730
sg5
g6
sa(dp4731
g2
F145.25
sg3
S'ung_143_13'
p4732
sg5
g6
sa(dp4733
g2
F181.25
sg3
S'ung_143_14'
p4734
sg5
g6
sa(dp4735
g2
F177.0
sg3
S'ung_143_15'
p4736
sg5
g6
sa(dp4737
g2
F152.75
sg3
S'ung_143_16'
p4738
sg5
g6
sa(dp4739
g2
F158.0
sg3
S'ung_143_17'
p4740
sg5
g6
sa(dp4741
g2
F188.0
sg3
S'ung_143_18'
p4742
sg5
g6
sa(dp4743
g2
F209.75
sg3
S'ung_143_19'
p4744
sg5
g6
sa(dp4745
g2
F162.75
sg3
S'ung_143_20'
p4746
sg5
g6
sa(dp4747
g2
F538.0
sg3
S'ung_143_21'
p4748
sg5
g6
sa(dp4749
g2
F272.75
sg3
S'ung_143_22'
p4750
sg5
g6
sa(dp4751
g2
F203.5
sg3
S'ung_143_23'
p4752
sg5
g6
sa(dp4753
g2
F251.25
sg3
S'ung_143_24'
p4754
sg5
g6
sa(dp4755
g2
F164.5
sg3
S'ung_143_25'
p4756
sg5
g6
sa(dp4757
g2
F158.75
sg3
S'ung_143_26'
p4758
sg5
g6
sa(dp4759
g2
F176.0
sg3
S'ung_143_27'
p4760
sg5
g6
sa(dp4761
g2
F160.75
sg3
S'ung_143_28'
p4762
sg5
g6
sa(dp4763
g2
F270.0
sg3
S'ung_143_29'
p4764
sg5
g6
sa(dp4765
g2
F92.5
sg3
S'ung_143_30'
p4766
sg5
g6
sa(dp4767
g2
F105.75
sg3
S'ung_143_31'
p4768
sg5
g6
sa(dp4769
g2
F195.0
sg3
S'ung_143_32'
p4770
sg5
g6
sa(dp4771
g2
F90.25
sg3
S'ung_143_33'
p4772
sg5
g6
sa(dp4773
g2
F195.75
sg3
S'ung_143_34'
p4774
sg5
g6
sa(dp4775
g2
F319.75
sg3
S'ung_143_35'
p4776
sg5
g6
sa(dp4777
g2
F190.25
sg3
S'ung_143_36'
p4778
sg5
g6
sa(dp4779
g2
F137.75
sg3
S'ung_143_37'
p4780
sg5
g6
sa(dp4781
g2
F329.25
sg3
S'ung_143_38'
p4782
sg5
g6
sa(dp4783
g2
F270.75
sg3
S'ung_143_39'
p4784
sg5
g6
sa(dp4785
g2
F241.5
sg3
S'ung_143_40'
p4786
sg5
g6
sa(dp4787
g2
F291.75
sg3
S'ung_143_41'
p4788
sg5
g6
sa(dp4789
g2
F134.25
sg3
S'ung_143_42'
p4790
sg5
g6
sa(dp4791
g2
F614.75
sg3
S'ung_144_01'
p4792
sg5
g6
sa(dp4793
g2
F581.0
sg3
S'ung_144_02'
p4794
sg5
g6
sa(dp4795
g2
F1119.75
sg3
S'ung_144_03'
p4796
sg5
g6
sa(dp4797
g2
F968.5
sg3
S'ung_144_04'
p4798
sg5
g6
sa(dp4799
g2
F696.5
sg3
S'ung_144_05'
p4800
sg5
g6
sa(dp4801
g2
F908.25
sg3
S'ung_144_06'
p4802
sg5
g6
sa(dp4803
g2
F612.0
sg3
S'ung_144_07'
p4804
sg5
g6
sa(dp4805
g2
F750.25
sg3
S'ung_144_08'
p4806
sg5
g6
sa(dp4807
g2
F845.5
sg3
S'ung_144_09'
p4808
sg5
g6
sa(dp4809
g2
F874.5
sg3
S'ung_144_10'
p4810
sg5
g6
sa(dp4811
g2
F857.25
sg3
S'ung_144_11'
p4812
sg5
g6
sa(dp4813
g2
F829.75
sg3
S'ung_144_12'
p4814
sg5
g6
sa(dp4815
g2
F486.5
sg3
S'ung_144_13'
p4816
sg5
g6
sa(dp4817
g2
F513.75
sg3
S'ung_144_14'
p4818
sg5
g6
sa(dp4819
g2
F825.5
sg3
S'ung_144_15'
p4820
sg5
g6
sa(dp4821
g2
F772.0
sg3
S'ung_144_16'
p4822
sg5
g6
sa(dp4823
g2
F705.0
sg3
S'ung_144_17'
p4824
sg5
g6
sa(dp4825
g2
F774.0
sg3
S'ung_144_18'
p4826
sg5
g6
sa(dp4827
g2
F86.75
sg3
S'ung_144_19'
p4828
sg5
g6
sa(dp4829
g2
F567.5
sg3
S'ung_144_20'
p4830
sg5
g6
sa(dp4831
g2
F482.5
sg3
S'ung_144_21'
p4832
sg5
g6
sa(dp4833
g2
F834.75
sg3
S'ung_144_22'
p4834
sg5
g6
sa(dp4835
g2
F852.25
sg3
S'ung_144_23'
p4836
sg5
g6
sa(dp4837
g2
F1175.25
sg3
S'ung_144_24'
p4838
sg5
g6
sa(dp4839
g2
F833.75
sg3
S'ung_144_25'
p4840
sg5
g6
sa(dp4841
g2
F836.75
sg3
S'ung_144_26'
p4842
sg5
g6
sa(dp4843
g2
F663.75
sg3
S'ung_144_27'
p4844
sg5
g6
sa(dp4845
g2
F571.5
sg3
S'ung_144_28'
p4846
sg5
g6
sa(dp4847
g2
F770.75
sg3
S'ung_144_29'
p4848
sg5
g6
sa(dp4849
g2
F1238.75
sg3
S'ung_144_30'
p4850
sg5
g6
sa(dp4851
g2
F1208.25
sg3
S'ung_144_31'
p4852
sg5
g6
sa(dp4853
g2
F1300.5
sg3
S'ung_144_32'
p4854
sg5
g6
sa(dp4855
g2
F1253.5
sg3
S'ung_144_33'
p4856
sg5
g6
sa(dp4857
g2
F1172.0
sg3
S'ung_144_34'
p4858
sg5
g6
sa(dp4859
g2
F1096.75
sg3
S'ung_41_02'
p4860
sg5
g6
sa(dp4861
g2
F1488.0
sg3
S'ung_41_03'
p4862
sg5
g6
sa(dp4863
g2
F1766.75
sg3
S'ung_41_04'
p4864
sg5
g6
sa(dp4865
g2
F1806.25
sg3
S'ung_41_05'
p4866
sg5
g6
sa(dp4867
g2
F1776.25
sg3
S'ung_41_06'
p4868
sg5
g6
sa(dp4869
g2
F1884.0
sg3
S'ung_41_07'
p4870
sg5
g6
sa(dp4871
g2
F1987.0
sg3
S'ung_41_08'
p4872
sg5
g6
sa(dp4873
g2
F1929.5
sg3
S'ung_41_09'
p4874
sg5
g6
sa(dp4875
g2
F977.25
sg3
S'ung_41_10'
p4876
sg5
g6
sa(dp4877
g2
F787.75
sg3
S'ung_41_11'
p4878
sg5
g6
sa(dp4879
g2
F283.5
sg3
S'ung_42_01'
p4880
sg5
g6
sa(dp4881
g2
F329.75
sg3
S'ung_47_01'
p4882
sg5
g6
sa(dp4883
g2
F163.0
sg3
S'ung_49_01'
p4884
sg5
g6
sa(dp4885
g2
F521.25
sg3
S'ung_49_02'
p4886
sg5
g6
sa(dp4887
g2
F376.0
sg3
S'ung_49_03'
p4888
sg5
g6
sa(dp4889
g2
F62.75
sg3
S'ung_49_04'
p4890
sg5
g6
sa(dp4891
g2
F41.0
sg3
S'ung_49_05'
p4892
sg5
g6
sa(dp4893
g2
F120.25
sg3
S'ung_49_06'
p4894
sg5
g6
sa(dp4895
g2
F117.75
sg3
S'ung_49_07'
p4896
sg5
g6
sa(dp4897
g2
F143.75
sg3
S'ung_49_08'
p4898
sg5
g6
sa(dp4899
g2
F479.25
sg3
S'ung_49_09'
p4900
sg5
g6
sa(dp4901
g2
F356.0
sg3
S'ung_49_10'
p4902
sg5
g6
sa(dp4903
g2
F299.25
sg3
S'ung_49_11'
p4904
sg5
g6
sa(dp4905
g2
F282.75
sg3
S'ung_49_12'
p4906
sg5
g6
sa(dp4907
g2
F130.75
sg3
S'ung_49_13'
p4908
sg5
g6
sa(dp4909
g2
F154.75
sg3
S'ung_49_14'
p4910
sg5
g6
sa(dp4911
g2
F236.75
sg3
S'ung_49_15'
p4912
sg5
g6
sa(dp4913
g2
F284.0
sg3
S'ung_49_16'
p4914
sg5
g6
sa(dp4915
g2
F187.5
sg3
S'ung_49_17'
p4916
sg5
g6
sa(dp4917
g2
F275.5
sg3
S'ung_49_18'
p4918
sg5
g6
sa(dp4919
g2
F239.25
sg3
S'ung_49_19'
p4920
sg5
g6
sa(dp4921
g2
F224.5
sg3
S'ung_49_20'
p4922
sg5
g6
sa(dp4923
g2
F605.5
sg3
S'ung_49_21'
p4924
sg5
g6
sa(dp4925
g2
F322.0
sg3
S'ung_49_22'
p4926
sg5
g6
sa(dp4927
g2
F376.5
sg3
S'ung_56_01'
p4928
sg5
g6
sa(dp4929
g2
F854.5
sg3
S'ung_56_02'
p4930
sg5
g6
sa(dp4931
g2
F1555.0
sg3
S'ung_56_03'
p4932
sg5
g6
sa(dp4933
g2
F1691.75
sg3
S'ung_56_04'
p4934
sg5
g6
sa(dp4935
g2
F1839.75
sg3
S'ung_56_05'
p4936
sg5
g6
sa(dp4937
g2
F1696.0
sg3
S'ung_56_06'
p4938
sg5
g6
sa(dp4939
g2
F2355.0
sg3
S'ung_56_07'
p4940
sg5
g6
sa(dp4941
g2
F1043.5
sg3
S'ung_56_08'
p4942
sg5
g6
sa(dp4943
g2
F560.5
sg3
S'ung_60_01'
p4944
sg5
g53
sa(dp4945
g2
F525.25
sg3
S'ung_60_02'
p4946
sg5
g53
sa(dp4947
g2
F457.5
sg3
S'ung_60_03'
p4948
sg5
g53
sa(dp4949
g2
F467.75
sg3
S'ung_60_04'
p4950
sg5
g53
sa(dp4951
g2
F419.5
sg3
S'ung_60_05'
p4952
sg5
g53
sa(dp4953
g2
F443.0
sg3
S'ung_60_06'
p4954
sg5
g53
sa(dp4955
g2
F517.75
sg3
S'ung_60_07'
p4956
sg5
g53
sa(dp4957
g2
F855.25
sg3
S'ung_60_08'
p4958
sg5
g53
sa(dp4959
g2
F643.75
sg3
S'ung_60_09'
p4960
sg5
g53
sa(dp4961
g2
F299.25
sg3
S'ung_60_10'
p4962
sg5
g53
sa(dp4963
g2
F527.0
sg3
S'ung_60_11'
p4964
sg5
g53
sa(dp4965
g2
F422.5
sg3
S'ung_60_12'
p4966
sg5
g53
sa(dp4967
g2
F567.75
sg3
S'ung_60_13'
p4968
sg5
g53
sa(dp4969
g2
F487.25
sg3
S'ung_60_14'
p4970
sg5
g53
sa(dp4971
g2
F535.0
sg3
S'ung_60_15'
p4972
sg5
g53
sa(dp4973
g2
F560.5
sg3
S'ung_61_01'
p4974
sg5
g53
sa(dp4975
g2
F525.25
sg3
S'ung_61_02'
p4976
sg5
g53
sa(dp4977
g2
F457.5
sg3
S'ung_61_03'
p4978
sg5
g53
sa(dp4979
g2
F467.75
sg3
S'ung_61_04'
p4980
sg5
g53
sa(dp4981
g2
F419.5
sg3
S'ung_61_05'
p4982
sg5
g53
sa(dp4983
g2
F443.0
sg3
S'ung_61_06'
p4984
sg5
g53
sa(dp4985
g2
F517.75
sg3
S'ung_61_07'
p4986
sg5
g53
sa(dp4987
g2
F855.25
sg3
S'ung_61_08'
p4988
sg5
g53
sa(dp4989
g2
F643.75
sg3
S'ung_61_09'
p4990
sg5
g53
sa(dp4991
g2
F299.25
sg3
S'ung_61_10'
p4992
sg5
g53
sa(dp4993
g2
F527.0
sg3
S'ung_61_11'
p4994
sg5
g53
sa(dp4995
g2
F422.5
sg3
S'ung_61_12'
p4996
sg5
g53
sa(dp4997
g2
F567.75
sg3
S'ung_61_13'
p4998
sg5
g53
sa(dp4999
g2
F487.25
sg3
S'ung_61_14'
p5000
sg5
g53
sa(dp5001
g2
F535.0
sg3
S'ung_61_15'
p5002
sg5
g53
sa(dp5003
g2
F178.75
sg3
S'ung_70_01'
p5004
sg5
g53
sa(dp5005
g2
F189.75
sg3
S'ung_70_02'
p5006
sg5
g53
sa(dp5007
g2
F463.25
sg3
S'ung_70_03'
p5008
sg5
g53
sa(dp5009
g2
F417.25
sg3
S'ung_70_04'
p5010
sg5
g53
sa(dp5011
g2
F226.0
sg3
S'ung_70_05'
p5012
sg5
g53
sa(dp5013
g2
F208.75
sg3
S'ung_70_06'
p5014
sg5
g53
sa(dp5015
g2
F213.5
sg3
S'ung_70_08'
p5016
sg5
g53
sa(dp5017
g2
F210.0
sg3
S'ung_70_09'
p5018
sg5
g53
sa(dp5019
g2
F199.75
sg3
S'ung_70_10'
p5020
sg5
g53
sa(dp5021
g2
F178.75
sg3
S'ung_73_01'
p5022
sg5
g6
sa(dp5023
g2
F189.75
sg3
S'ung_73_02'
p5024
sg5
g6
sa(dp5025
g2
F463.25
sg3
S'ung_73_03'
p5026
sg5
g6
sa(dp5027
g2
F417.25
sg3
S'ung_73_04'
p5028
sg5
g6
sa(dp5029
g2
F226.0
sg3
S'ung_73_05'
p5030
sg5
g6
sa(dp5031
g2
F208.75
sg3
S'ung_73_06'
p5032
sg5
g6
sa(dp5033
g2
F213.5
sg3
S'ung_73_08'
p5034
sg5
g6
sa(dp5035
g2
F210.0
sg3
S'ung_73_09'
p5036
sg5
g6
sa(dp5037
g2
F199.75
sg3
S'ung_73_10'
p5038
sg5
g6
sa(dp5039
g2
F116.0
sg3
S'ung_74_01'
p5040
sg5
g6
sa(dp5041
g2
F66.25
sg3
S'ung_74_02'
p5042
sg5
g6
sa(dp5043
g2
F99.0
sg3
S'ung_74_03'
p5044
sg5
g6
sa(dp5045
g2
F78.75
sg3
S'ung_74_04'
p5046
sg5
g6
sa(dp5047
g2
F80.75
sg3
S'ung_74_05'
p5048
sg5
g6
sa(dp5049
g2
F81.25
sg3
S'ung_74_06'
p5050
sg5
g6
sa(dp5051
g2
F77.75
sg3
S'ung_74_07'
p5052
sg5
g6
sa(dp5053
g2
F42.0
sg3
S'ung_74_08'
p5054
sg5
g6
sa(dp5055
g2
F49.75
sg3
S'ung_74_09'
p5056
sg5
g6
sa(dp5057
g2
F83.75
sg3
S'ung_74_10'
p5058
sg5
g6
sa(dp5059
g2
F86.5
sg3
S'ung_74_11'
p5060
sg5
g6
sa(dp5061
g2
F75.5
sg3
S'ung_74_12'
p5062
sg5
g6
sa(dp5063
g2
F631.0
sg3
S'ung_74_13'
p5064
sg5
g6
sa(dp5065
g2
F111.75
sg3
S'ung_74_14'
p5066
sg5
g6
sa(dp5067
g2
F109.75
sg3
S'ung_74_15'
p5068
sg5
g6
sa(dp5069
g2
F123.25
sg3
S'ung_74_16'
p5070
sg5
g6
sa(dp5071
g2
F130.25
sg3
S'ung_74_17'
p5072
sg5
g6
sa(dp5073
g2
F123.0
sg3
S'ung_74_18'
p5074
sg5
g6
sa(dp5075
g2
F122.0
sg3
S'ung_74_19'
p5076
sg5
g6
sa(dp5077
g2
F144.0
sg3
S'ung_74_20'
p5078
sg5
g6
sa(dp5079
g2
F232.5
sg3
S'ung_76_01'
p5080
sg5
g6
sa(dp5081
g2
F291.0
sg3
S'ung_76_02'
p5082
sg5
g6
sa(dp5083
g2
F270.5
sg3
S'ung_76_03'
p5084
sg5
g6
sa(dp5085
g2
F104.25
sg3
S'ung_76_04'
p5086
sg5
g6
sa(dp5087
g2
F216.5
sg3
S'ung_76_05'
p5088
sg5
g6
sa(dp5089
g2
F168.75
sg3
S'ung_76_06'
p5090
sg5
g6
sa(dp5091
g2
F5.0
sg3
S'ung_76_07'
p5092
sg5
g6
sa(dp5093
g2
F375.75
sg3
S'ung_76_08'
p5094
sg5
g6
sa(dp5095
g2
F396.75
sg3
S'ung_76_09'
p5096
sg5
g6
sa(dp5097
g2
F341.25
sg3
S'ung_76_10'
p5098
sg5
g6
sa(dp5099
g2
F128.25
sg3
S'ung_76_11'
p5100
sg5
g6
sa(dp5101
g2
F272.5
sg3
S'ung_77_01'
p5102
sg5
g6
sa(dp5103
g2
F234.25
sg3
S'ung_77_02'
p5104
sg5
g6
sa(dp5105
g2
F246.0
sg3
S'ung_77_03'
p5106
sg5
g6
sa(dp5107
g2
F220.75
sg3
S'ung_77_04'
p5108
sg5
g6
sa(dp5109
g2
F127.75
sg3
S'ung_77_05'
p5110
sg5
g6
sa(dp5111
g2
F338.0
sg3
S'ung_77_06'
p5112
sg5
g6
sa(dp5113
g2
F126.25
sg3
S'ung_77_07'
p5114
sg5
g6
sa(dp5115
g2
F252.0
sg3
S'ung_77_08'
p5116
sg5
g6
sa(dp5117
g2
F247.0
sg3
S'ung_77_09'
p5118
sg5
g6
sa(dp5119
g2
F172.5
sg3
S'ung_77_10'
p5120
sg5
g6
sa(dp5121
g2
F80.0
sg3
S'ung_77_11'
p5122
sg5
g6
sa(dp5123
g2
F244.5
sg3
S'ung_77_12'
p5124
sg5
g6
sa(dp5125
g2
F346.75
sg3
S'ung_77_13'
p5126
sg5
g6
sa(dp5127
g2
F247.5
sg3
S'ung_77_14'
p5128
sg5
g6
sa(dp5129
g2
F269.5
sg3
S'ung_77_15'
p5130
sg5
g6
sa(dp5131
g2
F163.25
sg3
S'ung_77_16'
p5132
sg5
g6
sa(dp5133
g2
F179.75
sg3
S'ung_77_17'
p5134
sg5
g6
sa(dp5135
g2
F213.5
sg3
S'ung_77_18'
p5136
sg5
g6
sa(dp5137
g2
F250.0
sg3
S'ung_77_19'
p5138
sg5
g6
sa(dp5139
g2
F392.5
sg3
S'ung_77_20'
p5140
sg5
g6
sa(dp5141
g2
F327.5
sg3
S'ung_77_21'
p5142
sg5
g6
sa(dp5143
g2
F356.25
sg3
S'ung_77_22'
p5144
sg5
g6
sa(dp5145
g2
F398.0
sg3
S'ung_77_23'
p5146
sg5
g6
sa(dp5147
g2
F179.0
sg3
S'ung_77_24'
p5148
sg5
g6
sa(dp5149
g2
F165.75
sg3
S'ung_77_25'
p5150
sg5
g6
sa(dp5151
g2
F162.75
sg3
S'ung_77_26'
p5152
sg5
g6
sa(dp5153
g2
F181.75
sg3
S'ung_77_27'
p5154
sg5
g6
sa(dp5155
g2
F742.5
sg3
S'ung_77_28'
p5156
sg5
g6
sa(dp5157
g2
F526.0
sg3
S'ung_77_29'
p5158
sg5
g6
sa(dp5159
g2
F315.25
sg3
S'ung_77_30'
p5160
sg5
g6
sa(dp5161
g2
F526.5
sg3
S'ung_77_31'
p5162
sg5
g6
sa(dp5163
g2
F473.5
sg3
S'ung_77_32'
p5164
sg5
g6
sa(dp5165
g2
F749.25
sg3
S'ung_77_33'
p5166
sg5
g6
sa(dp5167
g2
F280.5
sg3
S'ung_77_34'
p5168
sg5
g6
sa(dp5169
g2
F42.25
sg3
S'ung_78_01'
p5170
sg5
g6
sa(dp5171
g2
F69.25
sg3
S'ung_78_02'
p5172
sg5
g6
sa(dp5173
g2
F43.5
sg3
S'ung_78_03'
p5174
sg5
g6
sa(dp5175
g2
F38.0
sg3
S'ung_78_04'
p5176
sg5
g6
sa(dp5177
g2
F41.75
sg3
S'ung_78_05'
p5178
sg5
g6
sa(dp5179
g2
F27.25
sg3
S'ung_78_06'
p5180
sg5
g6
sa(dp5181
g2
F35.25
sg3
S'ung_78_07'
p5182
sg5
g6
sa(dp5183
g2
F28.0
sg3
S'ung_78_08'
p5184
sg5
g6
sa(dp5185
g2
F37.75
sg3
S'ung_78_09'
p5186
sg5
g6
sa(dp5187
g2
F35.0
sg3
S'ung_78_10'
p5188
sg5
g6
sa(dp5189
g2
F11.5
sg3
S'ung_78_11'
p5190
sg5
g6
sa(dp5191
g2
F24.25
sg3
S'ung_78_12'
p5192
sg5
g6
sa(dp5193
g2
F43.5
sg3
S'ung_78_13'
p5194
sg5
g6
sa(dp5195
g2
F42.75
sg3
S'ung_78_14'
p5196
sg5
g6
sa(dp5197
g2
F38.0
sg3
S'ung_78_15'
p5198
sg5
g6
sa(dp5199
g2
F49.0
sg3
S'ung_78_16'
p5200
sg5
g6
sa(dp5201
g2
F44.75
sg3
S'ung_78_17'
p5202
sg5
g6
sa(dp5203
g2
F53.25
sg3
S'ung_78_18'
p5204
sg5
g6
sa(dp5205
g2
F44.0
sg3
S'ung_78_19'
p5206
sg5
g6
sa(dp5207
g2
F57.5
sg3
S'ung_78_20'
p5208
sg5
g6
sa(dp5209
g2
F56.5
sg3
S'ung_78_21'
p5210
sg5
g6
sa(dp5211
g2
F151.5
sg3
S'ung_78_22'
p5212
sg5
g6
sa(dp5213
g2
F129.75
sg3
S'ung_78_23'
p5214
sg5
g6
sa(dp5215
g2
F61.5
sg3
S'ung_78_24'
p5216
sg5
g6
sa(dp5217
g2
F89.0
sg3
S'ung_78_25'
p5218
sg5
g6
sa(dp5219
g2
F81.5
sg3
S'ung_78_26'
p5220
sg5
g6
sa(dp5221
g2
F74.0
sg3
S'ung_78_27'
p5222
sg5
g6
sa(dp5223
g2
F112.0
sg3
S'ung_78_28'
p5224
sg5
g6
sa(dp5225
g2
F42.75
sg3
S'ung_78_29'
p5226
sg5
g6
sa(dp5227
g2
F175.75
sg3
S'ung_78_30'
p5228
sg5
g6
sa(dp5229
g2
F199.5
sg3
S'ung_78_31'
p5230
sg5
g6
sa(dp5231
g2
F53.5
sg3
S'ung_78_32'
p5232
sg5
g6
sa(dp5233
g2
F57.25
sg3
S'ung_78_33'
p5234
sg5
g6
sa(dp5235
g2
F76.25
sg3
S'ung_78_34'
p5236
sg5
g6
sa(dp5237
g2
F55.0
sg3
S'ung_78_35'
p5238
sg5
g6
sa(dp5239
g2
F2.5
sg3
S'ung_82_01'
p5240
sg5
g6
sa(dp5241
g2
F452.0
sg3
S'ung_82_02'
p5242
sg5
g6
sa(dp5243
g2
F474.75
sg3
S'ung_82_03'
p5244
sg5
g6
sa(dp5245
g2
F227.0
sg3
S'ung_82_04'
p5246
sg5
g6
sa(dp5247
g2
F561.75
sg3
S'ung_82_05'
p5248
sg5
g6
sa(dp5249
g2
F272.75
sg3
S'ung_82_06'
p5250
sg5
g6
sa(dp5251
g2
F299.5
sg3
S'ung_82_07'
p5252
sg5
g6
sa(dp5253
g2
F424.75
sg3
S'ung_82_08'
p5254
sg5
g6
sa(dp5255
g2
F323.0
sg3
S'ung_82_09'
p5256
sg5
g6
sa(dp5257
g2
F141.0
sg3
S'ung_82_10'
p5258
sg5
g6
sa(dp5259
g2
F173.75
sg3
S'ung_82_11'
p5260
sg5
g6
sa(dp5261
g2
F100.5
sg3
S'ung_82_12'
p5262
sg5
g6
sa(dp5263
g2
F103.25
sg3
S'ung_82_13'
p5264
sg5
g6
sa(dp5265
g2
F226.75
sg3
S'ung_82_14'
p5266
sg5
g6
sa(dp5267
g2
F179.0
sg3
S'ung_82_15'
p5268
sg5
g6
sa(dp5269
g2
F333.25
sg3
S'ung_82_16'
p5270
sg5
g6
sa(dp5271
g2
F395.0
sg3
S'ung_82_17'
p5272
sg5
g6
sa(dp5273
g2
F2.5
sg3
S'ung_82_18'
p5274
sg5
g6
sa(dp5275
g2
F158.25
sg3
S'ung_83_01'
p5276
sg5
g6
sa(dp5277
g2
F91.0
sg3
S'ung_83_02'
p5278
sg5
g6
sa(dp5279
g2
F167.25
sg3
S'ung_83_03'
p5280
sg5
g6
sa(dp5281
g2
F116.75
sg3
S'ung_83_04'
p5282
sg5
g6
sa(dp5283
g2
F121.5
sg3
S'ung_83_05'
p5284
sg5
g6
sa(dp5285
g2
F100.25
sg3
S'ung_83_06'
p5286
sg5
g6
sa(dp5287
g2
F105.5
sg3
S'ung_83_07'
p5288
sg5
g6
sa(dp5289
g2
F115.5
sg3
S'ung_83_08'
p5290
sg5
g6
sa(dp5291
g2
F112.75
sg3
S'ung_83_09'
p5292
sg5
g6
sa(dp5293
g2
F119.75
sg3
S'ung_83_10'
p5294
sg5
g6
sa(dp5295
g2
F24.75
sg3
S'ung_83_11'
p5296
sg5
g6
sa(dp5297
g2
F127.0
sg3
S'ung_83_12'
p5298
sg5
g6
sa(dp5299
g2
F126.75
sg3
S'ung_83_13'
p5300
sg5
g6
sa(dp5301
g2
F107.25
sg3
S'ung_83_14'
p5302
sg5
g6
sa(dp5303
g2
F130.5
sg3
S'ung_83_15'
p5304
sg5
g6
sa(dp5305
g2
F127.5
sg3
S'ung_83_16'
p5306
sg5
g6
sa(dp5307
g2
F131.0
sg3
S'ung_83_17'
p5308
sg5
g6
sa(dp5309
g2
F116.5
sg3
S'ung_83_18'
p5310
sg5
g6
sa(dp5311
g2
F127.25
sg3
S'ung_83_19'
p5312
sg5
g6
sa(dp5313
g2
F131.0
sg3
S'ung_83_20'
p5314
sg5
g6
sa(dp5315
g2
F129.75
sg3
S'ung_83_21'
p5316
sg5
g6
sa(dp5317
g2
F1342.75
sg3
S'ung_83_22'
p5318
sg5
g6
sa(dp5319
g2
F135.5
sg3
S'ung_83_23'
p5320
sg5
g6
sa(dp5321
g2
F133.0
sg3
S'ung_83_24'
p5322
sg5
g6
sa(dp5323
g2
F135.25
sg3
S'ung_83_25'
p5324
sg5
g6
sa(dp5325
g2
F130.5
sg3
S'ung_83_26'
p5326
sg5
g6
sa(dp5327
g2
F245.75
sg3
S'ung_83_27'
p5328
sg5
g6
sa(dp5329
g2
F232.75
sg3
S'ung_83_28'
p5330
sg5
g6
sa(dp5331
g2
F236.75
sg3
S'ung_83_29'
p5332
sg5
g6
sa(dp5333
g2
F252.25
sg3
S'ung_83_30'
p5334
sg5
g6
sa(dp5335
g2
F233.75
sg3
S'ung_83_31'
p5336
sg5
g6
sa(dp5337
g2
F260.25
sg3
S'ung_83_32'
p5338
sg5
g6
sa(dp5339
g2
F322.75
sg3
S'ung_83_33'
p5340
sg5
g6
sa(dp5341
g2
F241.75
sg3
S'ung_83_34'
p5342
sg5
g6
sa(dp5343
g2
F262.0
sg3
S'ung_83_35'
p5344
sg5
g6
sa(dp5345
g2
F265.5
sg3
S'ung_83_36'
p5346
sg5
g6
sa(dp5347
g2
F239.5
sg3
S'ung_83_37'
p5348
sg5
g6
sa(dp5349
g2
F251.5
sg3
S'ung_83_38'
p5350
sg5
g6
sa(dp5351
g2
F242.75
sg3
S'ung_83_39'
p5352
sg5
g6
sa(dp5353
g2
F132.5
sg3
S'ung_83_40'
p5354
sg5
g6
sa(dp5355
g2
F117.5
sg3
S'ung_83_41'
p5356
sg5
g6
sa(dp5357
g2
F135.0
sg3
S'ung_83_42'
p5358
sg5
g6
sa(dp5359
g2
F149.25
sg3
S'ung_83_43'
p5360
sg5
g6
sa(dp5361
g2
F165.25
sg3
S'ung_83_44'
p5362
sg5
g6
sa(dp5363
g2
F123.75
sg3
S'ung_83_45'
p5364
sg5
g6
sa(dp5365
g2
F125.25
sg3
S'ung_83_46'
p5366
sg5
g6
sa(dp5367
g2
F155.5
sg3
S'ung_83_47'
p5368
sg5
g6
sa(dp5369
g2
F111.25
sg3
S'ung_83_48'
p5370
sg5
g6
sa(dp5371
g2
F114.0
sg3
S'ung_83_49'
p5372
sg5
g6
sa(dp5373
g2
F132.0
sg3
S'ung_83_50'
p5374
sg5
g6
sa(dp5375
g2
F147.75
sg3
S'ung_83_51'
p5376
sg5
g6
sa(dp5377
g2
F127.0
sg3
S'ung_83_52'
p5378
sg5
g6
sa(dp5379
g2
F134.75
sg3
S'ung_83_53'
p5380
sg5
g6
sa(dp5381
g2
F105.0
sg3
S'ung_83_54'
p5382
sg5
g6
sa(dp5383
g2
F184.0
sg3
S'ung_83_55'
p5384
sg5
g6
sa(dp5385
g2
F125.25
sg3
S'ung_83_56'
p5386
sg5
g6
sa(dp5387
g2
F102.25
sg3
S'ung_83_57'
p5388
sg5
g6
sa(dp5389
g2
F91.0
sg3
S'ung_83_58'
p5390
sg5
g6
sa(dp5391
g2
F150.5
sg3
S'ung_83_59'
p5392
sg5
g6
sa(dp5393
g2
F101.5
sg3
S'ung_83_60'
p5394
sg5
g6
sa(dp5395
g2
F125.75
sg3
S'ung_83_61'
p5396
sg5
g6
sa(dp5397
g2
F118.5
sg3
S'ung_83_62'
p5398
sg5
g6
sa(dp5399
g2
F171.25
sg3
S'ung_83_63'
p5400
sg5
g6
sa(dp5401
g2
F144.5
sg3
S'ung_83_64'
p5402
sg5
g6
sa(dp5403
g2
F100.25
sg3
S'ung_83_65'
p5404
sg5
g6
sa(dp5405
g2
F168.0
sg3
S'ung_83_66'
p5406
sg5
g6
sa(dp5407
g2
F168.75
sg3
S'ung_83_67'
p5408
sg5
g6
sa(dp5409
g2
F165.0
sg3
S'ung_83_68'
p5410
sg5
g6
sa(dp5411
g2
F116.0
sg3
S'ung_84_01'
p5412
sg5
g6
sa(dp5413
g2
F66.25
sg3
S'ung_84_02'
p5414
sg5
g6
sa(dp5415
g2
F99.0
sg3
S'ung_84_03'
p5416
sg5
g6
sa(dp5417
g2
F78.75
sg3
S'ung_84_04'
p5418
sg5
g6
sa(dp5419
g2
F80.75
sg3
S'ung_84_05'
p5420
sg5
g6
sa(dp5421
g2
F81.25
sg3
S'ung_84_06'
p5422
sg5
g6
sa(dp5423
g2
F77.75
sg3
S'ung_84_07'
p5424
sg5
g6
sa(dp5425
g2
F42.0
sg3
S'ung_84_08'
p5426
sg5
g6
sa(dp5427
g2
F49.75
sg3
S'ung_84_09'
p5428
sg5
g6
sa(dp5429
g2
F83.75
sg3
S'ung_84_10'
p5430
sg5
g6
sa(dp5431
g2
F86.5
sg3
S'ung_84_11'
p5432
sg5
g6
sa(dp5433
g2
F75.5
sg3
S'ung_84_12'
p5434
sg5
g6
sa(dp5435
g2
F631.0
sg3
S'ung_84_13'
p5436
sg5
g6
sa(dp5437
g2
F111.75
sg3
S'ung_84_14'
p5438
sg5
g6
sa(dp5439
g2
F109.75
sg3
S'ung_84_15'
p5440
sg5
g6
sa(dp5441
g2
F123.25
sg3
S'ung_84_16'
p5442
sg5
g6
sa(dp5443
g2
F130.25
sg3
S'ung_84_17'
p5444
sg5
g6
sa(dp5445
g2
F123.0
sg3
S'ung_84_18'
p5446
sg5
g6
sa(dp5447
g2
F122.0
sg3
S'ung_84_19'
p5448
sg5
g6
sa(dp5449
g2
F144.0
sg3
S'ung_84_20'
p5450
sg5
g6
sa(dp5451
g2
F249.5
sg3
S'ung_85_01'
p5452
sg5
g6
sa(dp5453
g2
F202.5
sg3
S'ung_85_02'
p5454
sg5
g6
sa(dp5455
g2
F811.25
sg3
S'ung_85_03'
p5456
sg5
g6
sa(dp5457
g2
F638.75
sg3
S'ung_85_04'
p5458
sg5
g6
sa(dp5459
g2
F408.5
sg3
S'ung_85_05'
p5460
sg5
g6
sa(dp5461
g2
F237.5
sg3
S'ung_85_06'
p5462
sg5
g6
sa(dp5463
g2
F239.75
sg3
S'ung_85_07'
p5464
sg5
g6
sa(dp5465
g2
F254.0
sg3
S'ung_85_08'
p5466
sg5
g6
sa(dp5467
g2
F63.25
sg3
S'ung_85_09'
p5468
sg5
g6
sa(dp5469
g2
F193.5
sg3
S'ung_85_10'
p5470
sg5
g6
sa(dp5471
g2
F450.5
sg3
S'ung_85_11'
p5472
sg5
g6
sa(dp5473
g2
F1124.75
sg3
S'ung_85_12'
p5474
sg5
g6
sa(dp5475
g2
F361.5
sg3
S'ung_85_13'
p5476
sg5
g6
sa(dp5477
g2
F742.25
sg3
S'ung_85_14'
p5478
sg5
g6
sa(dp5479
g2
F331.25
sg3
S'ung_85_15'
p5480
sg5
g6
sa(dp5481
g2
F1144.75
sg3
S'ung_86_01'
p5482
sg5
g6
sa(dp5483
g2
F2654.25
sg3
S'ung_86_02'
p5484
sg5
g6
sa(dp5485
g2
F2100.25
sg3
S'ung_86_03'
p5486
sg5
g6
sa(dp5487
g2
F2519.5
sg3
S'ung_86_04'
p5488
sg5
g6
sa(dp5489
g2
F2085.0
sg3
S'ung_86_05'
p5490
sg5
g6
sa(dp5491
g2
F2484.75
sg3
S'ung_86_06'
p5492
sg5
g6
sa(dp5493
g2
F2175.5
sg3
S'ung_86_07'
p5494
sg5
g6
sa(dp5495
g2
F2301.5
sg3
S'ung_86_08'
p5496
sg5
g6
sa(dp5497
g2
F1198.5
sg3
S'ung_86_09'
p5498
sg5
g6
sa(dp5499
g2
F1895.75
sg3
S'ung_86_10'
p5500
sg5
g6
sa(dp5501
g2
F1418.5
sg3
S'ung_86_11'
p5502
sg5
g6
sa(dp5503
g2
F2214.0
sg3
S'ung_86_12'
p5504
sg5
g6
sa(dp5505
g2
F1555.25
sg3
S'ung_86_13'
p5506
sg5
g6
sa(dp5507
g2
F1634.75
sg3
S'ung_86_14'
p5508
sg5
g6
sa(dp5509
g2
F1773.0
sg3
S'ung_86_15'
p5510
sg5
g6
sa(dp5511
g2
F154.0
sg3
S'ung_87_01'
p5512
sg5
g6
sa(dp5513
g2
F61.75
sg3
S'ung_87_03'
p5514
sg5
g6
sa(dp5515
g2
F54.0
sg3
S'ung_87_04'
p5516
sg5
g6
sa(dp5517
g2
F197.25
sg3
S'ung_90_01'
p5518
sg5
g6
sa(dp5519
g2
F195.25
sg3
S'ung_90_02'
p5520
sg5
g6
sa(dp5521
g2
F221.0
sg3
S'ung_90_03'
p5522
sg5
g6
sa(dp5523
g2
F174.5
sg3
S'ung_90_04'
p5524
sg5
g6
sa(dp5525
g2
F128.25
sg3
S'ung_90_05'
p5526
sg5
g6
sa(dp5527
g2
F156.0
sg3
S'ung_90_06'
p5528
sg5
g6
sa(dp5529
g2
F223.75
sg3
S'ung_90_07'
p5530
sg5
g6
sa(dp5531
g2
F84.25
sg3
S'ung_90_08'
p5532
sg5
g6
sa(dp5533
g2
F76.25
sg3
S'ung_90_09'
p5534
sg5
g6
sa(dp5535
g2
F0.5
sg3
S'ung_90_10'
p5536
sg5
g6
sa(dp5537
g2
F45.0
sg3
S'ung_90_11'
p5538
sg5
g6
sa(dp5539
g2
F206.5
sg3
S'ung_90_12'
p5540
sg5
g6
sa(dp5541
g2
F232.25
sg3
S'ung_90_13'
p5542
sg5
g6
sa(dp5543
g2
F209.5
sg3
S'ung_90_14'
p5544
sg5
g6
sa(dp5545
g2
F297.25
sg3
S'ung_90_15'
p5546
sg5
g6
sa(dp5547
g2
F181.0
sg3
S'ung_90_16'
p5548
sg5
g6
sa(dp5549
g2
F151.25
sg3
S'ung_90_17'
p5550
sg5
g6
sa(dp5551
g2
F98.5
sg3
S'ung_90_18'
p5552
sg5
g6
sa(dp5553
g2
F260.0
sg3
S'ung_90_19'
p5554
sg5
g6
sa(dp5555
g2
F444.75
sg3
S'ung_90_20'
p5556
sg5
g6
sa(dp5557
g2
F338.75
sg3
S'ung_90_21'
p5558
sg5
g6
sa(dp5559
g2
F173.0
sg3
S'ung_90_22'
p5560
sg5
g6
sa(dp5561
g2
F296.75
sg3
S'ung_90_23'
p5562
sg5
g6
sa(dp5563
g2
F196.5
sg3
S'ung_90_24'
p5564
sg5
g6
sa(dp5565
g2
F316.5
sg3
S'ung_90_25'
p5566
sg5
g6
sa(dp5567
g2
F357.5
sg3
S'ung_90_26'
p5568
sg5
g6
sa(dp5569
g2
F306.25
sg3
S'ung_90_27'
p5570
sg5
g6
sa(dp5571
g2
F192.5
sg3
S'ung_90_28'
p5572
sg5
g6
sa(dp5573
g2
F370.5
sg3
S'ung_90_29'
p5574
sg5
g6
sa(dp5575
g2
F358.25
sg3
S'ung_90_30'
p5576
sg5
g6
sa(dp5577
g2
F244.75
sg3
S'ung_90_31'
p5578
sg5
g6
sa(dp5579
g2
F180.75
sg3
S'ung_90_32'
p5580
sg5
g6
sa(dp5581
g2
F224.0
sg3
S'ung_90_33'
p5582
sg5
g6
sa(dp5583
g2
F210.0
sg3
S'ung_90_34'
p5584
sg5
g6
sa(dp5585
g2
F173.75
sg3
S'ung_90_35'
p5586
sg5
g6
sa(dp5587
g2
F164.25
sg3
S'ung_90_36'
p5588
sg5
g6
sa(dp5589
g2
F684.25
sg3
S'ung_91_01'
p5590
sg5
g6
sa(dp5591
g2
F437.0
sg3
S'ung_91_02'
p5592
sg5
g6
sa(dp5593
g2
F466.25
sg3
S'ung_91_03'
p5594
sg5
g6
sa(dp5595
g2
F540.5
sg3
S'ung_91_04'
p5596
sg5
g6
sa(dp5597
g2
F675.0
sg3
S'ung_91_05'
p5598
sg5
g6
sa(dp5599
g2
F34.0
sg3
S'ung_91_06'
p5600
sg5
g6
sa(dp5601
g2
F645.5
sg3
S'ung_91_07'
p5602
sg5
g6
sa(dp5603
g2
F993.0
sg3
S'ung_91_08'
p5604
sg5
g6
sa(dp5605
g2
F1350.5
sg3
S'ung_91_09'
p5606
sg5
g6
sa(dp5607
g2
F793.75
sg3
S'ung_91_10'
p5608
sg5
g6
sa(dp5609
g2
F465.75
sg3
S'ung_91_11'
p5610
sg5
g6
sa(dp5611
g2
F555.5
sg3
S'ung_91_12'
p5612
sg5
g6
sa(dp5613
g2
F740.0
sg3
S'ung_91_13'
p5614
sg5
g6
sa(dp5615
g2
F692.25
sg3
S'ung_91_14'
p5616
sg5
g6
sa(dp5617
g2
F772.5
sg3
S'ung_91_15'
p5618
sg5
g6
sa(dp5619
g2
F473.0
sg3
S'ung_91_16'
p5620
sg5
g6
sa(dp5621
g2
F380.0
sg3
S'ung_91_17'
p5622
sg5
g6
sa(dp5623
g2
F840.75
sg3
S'ung_91_18'
p5624
sg5
g6
sa(dp5625
g2
F471.25
sg3
S'ung_91_19'
p5626
sg5
g6
sa(dp5627
g2
F693.5
sg3
S'ung_91_20'
p5628
sg5
g6
sa(dp5629
g2
F967.5
sg3
S'ung_91_21'
p5630
sg5
g6
sa(dp5631
g2
F526.5
sg3
S'ung_91_22'
p5632
sg5
g6
sa(dp5633
g2
F667.0
sg3
S'ung_91_23'
p5634
sg5
g6
sa(dp5635
g2
F951.0
sg3
S'ung_91_24'
p5636
sg5
g6
sa(dp5637
g2
F784.25
sg3
S'ung_91_25'
p5638
sg5
g6
sa(dp5639
g2
F520.5
sg3
S'ung_91_26'
p5640
sg5
g6
sa(dp5641
g2
F723.5
sg3
S'ung_91_27'
p5642
sg5
g6
sa(dp5643
g2
F826.75
sg3
S'ung_91_28'
p5644
sg5
g6
sa(dp5645
g2
F545.25
sg3
S'ung_91_29'
p5646
sg5
g6
sa(dp5647
g2
F784.75
sg3
S'ung_91_30'
p5648
sg5
g6
sa(dp5649
g2
F498.0
sg3
S'ung_91_31'
p5650
sg5
g6
sa(dp5651
g2
F931.0
sg3
S'ung_91_32'
p5652
sg5
g6
sa(dp5653
g2
F674.5
sg3
S'ung_91_33'
p5654
sg5
g6
sa(dp5655
g2
F552.0
sg3
S'ung_91_34'
p5656
sg5
g6
sa(dp5657
g2
F763.0
sg3
S'ung_91_35'
p5658
sg5
g6
sa(dp5659
g2
F221.75
sg3
S'ung_91_36'
p5660
sg5
g6
sa(dp5661
g2
F78.75
sg3
S'ung_91_37'
p5662
sg5
g6
sa(dp5663
g2
F114.5
sg3
S'ung_91_38'
p5664
sg5
g6
sa(dp5665
g2
F111.5
sg3
S'ung_91_39'
p5666
sg5
g6
sa(dp5667
g2
F117.25
sg3
S'ung_91_40'
p5668
sg5
g6
sa(dp5669
g2
F125.75
sg3
S'ung_91_41'
p5670
sg5
g6
sa(dp5671
g2
F140.0
sg3
S'ung_91_42'
p5672
sg5
g6
sa(dp5673
g2
F56.75
sg3
S'ung_91_43'
p5674
sg5
g6
sa(dp5675
g2
F84.5
sg3
S'ung_91_44'
p5676
sg5
g6
sa(dp5677
g2
F92.75
sg3
S'ung_91_45'
p5678
sg5
g6
sa(dp5679
g2
F80.5
sg3
S'ung_91_46'
p5680
sg5
g6
sa(dp5681
g2
F117.25
sg3
S'ung_91_47'
p5682
sg5
g6
sa(dp5683
g2
F110.0
sg3
S'ung_91_48'
p5684
sg5
g6
sa(dp5685
g2
F120.5
sg3
S'ung_91_49'
p5686
sg5
g6
sa(dp5687
g2
F165.75
sg3
S'ung_91_50'
p5688
sg5
g6
sa(dp5689
g2
F121.0
sg3
S'ung_91_51'
p5690
sg5
g6
sa(dp5691
g2
F127.25
sg3
S'ung_91_52'
p5692
sg5
g6
sa(dp5693
g2
F138.75
sg3
S'ung_91_53'
p5694
sg5
g6
sa(dp5695
g2
F169.5
sg3
S'ung_91_54'
p5696
sg5
g6
sa(dp5697
g2
F116.75
sg3
S'ung_91_55'
p5698
sg5
g6
sa(dp5699
g2
F125.0
sg3
S'ung_91_56'
p5700
sg5
g6
sa(dp5701
g2
F294.25
sg3
S'ung_91_57'
p5702
sg5
g6
sa(dp5703
g2
F123.25
sg3
S'ung_91_58'
p5704
sg5
g6
sa(dp5705
g2
F78.0
sg3
S'ung_91_59'
p5706
sg5
g6
sa(dp5707
g2
F91.75
sg3
S'ung_91_60'
p5708
sg5
g6
sa(dp5709
g2
F90.5
sg3
S'ung_91_61'
p5710
sg5
g6
sa(dp5711
g2
F462.25
sg3
S'ung_91_62'
p5712
sg5
g6
sa(dp5713
g2
F5.25
sg3
S'ung_93_01'
p5714
sg5
g6
sa(dp5715
g2
F373.0
sg3
S'ung_93_02'
p5716
sg5
g6
sa(dp5717
g2
F110.5
sg3
S'ung_93_03'
p5718
sg5
g6
sa(dp5719
g2
F126.5
sg3
S'ung_93_04'
p5720
sg5
g6
sa(dp5721
g2
F136.5
sg3
S'ung_93_05'
p5722
sg5
g6
sa(dp5723
g2
F100.5
sg3
S'ung_93_06'
p5724
sg5
g6
sa(dp5725
g2
F59.0
sg3
S'ung_93_07'
p5726
sg5
g6
sa(dp5727
g2
F139.25
sg3
S'ung_93_08'
p5728
sg5
g6
sa(dp5729
g2
F900.5
sg3
S'ung_94_01'
p5730
sg5
g6
sa(dp5731
g2
F835.25
sg3
S'ung_94_02'
p5732
sg5
g6
sa(dp5733
g2
F933.0
sg3
S'ung_94_03'
p5734
sg5
g6
sa(dp5735
g2
F785.75
sg3
S'ung_94_04'
p5736
sg5
g6
sa(dp5737
g2
F1318.0
sg3
S'ung_94_05'
p5738
sg5
g6
sa(dp5739
g2
F628.5
sg3
S'ung_94_06'
p5740
sg5
g6
sa(dp5741
g2
F578.25
sg3
S'ung_94_07'
p5742
sg5
g6
sa(dp5743
g2
F687.25
sg3
S'ung_94_08'
p5744
sg5
g6
sa(dp5745
g2
F993.5
sg3
S'ung_94_09'
p5746
sg5
g6
sa(dp5747
g2
F864.25
sg3
S'ung_94_10'
p5748
sg5
g6
sa(dp5749
g2
F1202.25
sg3
S'ung_94_11'
p5750
sg5
g6
sa(dp5751
g2
F1125.0
sg3
S'ung_94_12'
p5752
sg5
g6
sa(dp5753
g2
F498.75
sg3
S'ung_94_13'
p5754
sg5
g6
sa(dp5755
g2
F748.75
sg3
S'ung_94_14'
p5756
sg5
g6
sa(dp5757
g2
F552.75
sg3
S'ung_94_15'
p5758
sg5
g6
sa(dp5759
g2
F507.75
sg3
S'ung_94_16'
p5760
sg5
g6
sa.